ARM GAS  C:\Users\laral\AppData\Local\Temp\cc6NYrQu.s 			page 1


   1              		.cpu cortex-m4
   2              		.eabi_attribute 27, 1
   3              		.eabi_attribute 28, 1
   4              		.eabi_attribute 20, 1
   5              		.eabi_attribute 21, 1
   6              		.eabi_attribute 23, 3
   7              		.eabi_attribute 24, 1
   8              		.eabi_attribute 25, 1
   9              		.eabi_attribute 26, 1
  10              		.eabi_attribute 30, 2
  11              		.eabi_attribute 34, 1
  12              		.eabi_attribute 18, 4
  13              		.file	"animation.c"
  14              		.text
  15              	.Ltext0:
  16              		.cfi_sections	.debug_frame
  17              		.section	.text.LedAnimation,"ax",%progbits
  18              		.align	1
  19              		.p2align 4,,15
  20              		.syntax unified
  21              		.thumb
  22              		.thumb_func
  23              		.fpu fpv4-sp-d16
  24              		.type	LedAnimation, %function
  25              	LedAnimation:
  26              	.LFB257:
  27              		.file 1 "animation.c"
  28              		.loc 1 24 0
  29              		.cfi_startproc
  30              		@ Volatile: function does not return.
  31              		@ args = 0, pretend = 0, frame = 8
  32              		@ frame_needed = 0, uses_anonymous_args = 0
  33              	.LVL0:
  34 0000 80B5     		push	{r7, lr}
  35              		.cfi_def_cfa_offset 8
  36              		.cfi_offset 7, -8
  37              		.cfi_offset 14, -4
  38              	.LBB6:
  39              	.LBB7:
  40              		.file 2 "../projet/e-puck2_main-processor/ChibiOS//os/rt/include/chregistry.h"
  41              		.loc 2 135 0
  42 0002 234A     		ldr	r2, .L12
  43              	.LBE7:
  44              	.LBE6:
  45              		.loc 1 24 0
  46 0004 234B     		ldr	r3, .L12+4
  47              	.LBB10:
  48              	.LBB8:
  49              		.loc 2 135 0
  50 0006 9269     		ldr	r2, [r2, #24]
  51 0008 2349     		ldr	r1, .L12+8
  52              	.LBE8:
  53              	.LBE10:
  54              		.loc 1 24 0
  55 000a 1B68     		ldr	r3, [r3]
  56 000c 234D     		ldr	r5, .L12+12
  57              	.LBB11:
ARM GAS  C:\Users\laral\AppData\Local\Temp\cc6NYrQu.s 			page 2


  58              	.LBB9:
  59              		.loc 2 135 0
  60 000e 9161     		str	r1, [r2, #24]
  61              	.LBE9:
  62              	.LBE11:
  63              		.loc 1 24 0
  64 0010 82B0     		sub	sp, sp, #8
  65              		.cfi_def_cfa_offset 16
  66              		.loc 1 161 0
  67 0012 0026     		movs	r6, #0
  68              		.loc 1 24 0
  69 0014 0193     		str	r3, [sp, #4]
  70              	.LVL1:
  71              		.loc 1 157 0
  72 0016 4FF00308 		mov	r8, #3
  73              		.loc 1 153 0
  74 001a 0227     		movs	r7, #2
  75 001c 09E0     		b	.L6
  76              	.LVL2:
  77              	.L2:
  78              		.loc 1 152 0
  79 001e 012C     		cmp	r4, #1
  80 0020 2ED0     		beq	.L10
  81              		.loc 1 155 0
  82 0022 022C     		cmp	r4, #2
  83 0024 2ED0     		beq	.L11
  84              		.loc 1 160 0
  85 0026 FFF7FEFF 		bl	clear_leds
  86              	.LVL3:
  87              		.loc 1 161 0
  88 002a 2E70     		strb	r6, [r5]
  89              	.L3:
  90              		.loc 1 172 0
  91 002c FA20     		movs	r0, #250
  92 002e FFF7FEFF 		bl	chThdSleep
  93              	.LVL4:
  94              	.L6:
  95              		.loc 1 143 0
  96 0032 95F90040 		ldrsb	r4, [r5]
  97 0036 002C     		cmp	r4, #0
  98 0038 F1D1     		bne	.L2
  99              		.loc 1 144 0
 100 003a FF23     		movs	r3, #255
 101 003c 1946     		mov	r1, r3
 102 003e 2246     		mov	r2, r4
 103 0040 2046     		mov	r0, r4
 104 0042 FFF7FEFF 		bl	set_rgb_led
 105              	.LVL5:
 106              		.loc 1 145 0
 107 0046 FF23     		movs	r3, #255
 108 0048 1946     		mov	r1, r3
 109 004a 2246     		mov	r2, r4
 110 004c 0120     		movs	r0, #1
 111 004e FFF7FEFF 		bl	set_rgb_led
 112              	.LVL6:
 113              		.loc 1 146 0
 114 0052 FF23     		movs	r3, #255
ARM GAS  C:\Users\laral\AppData\Local\Temp\cc6NYrQu.s 			page 3


 115 0054 1946     		mov	r1, r3
 116 0056 2246     		mov	r2, r4
 117 0058 0220     		movs	r0, #2
 118 005a FFF7FEFF 		bl	set_rgb_led
 119              	.LVL7:
 120              		.loc 1 147 0
 121 005e FF23     		movs	r3, #255
 122 0060 1946     		mov	r1, r3
 123 0062 2246     		mov	r2, r4
 124 0064 0320     		movs	r0, #3
 125 0066 FFF7FEFF 		bl	set_rgb_led
 126              	.LVL8:
 127              		.loc 1 148 0
 128 006a 0121     		movs	r1, #1
 129 006c 0846     		mov	r0, r1
 130 006e FFF7FEFF 		bl	set_led
 131              	.LVL9:
 132              		.loc 1 149 0
 133 0072 0121     		movs	r1, #1
 134 0074 0320     		movs	r0, #3
 135 0076 FFF7FEFF 		bl	set_led
 136              	.LVL10:
 137              		.loc 1 150 0
 138 007a 0123     		movs	r3, #1
 139 007c 2B70     		strb	r3, [r5]
 140 007e D5E7     		b	.L3
 141              	.L10:
 142              		.loc 1 153 0
 143 0080 2F70     		strb	r7, [r5]
 144 0082 D3E7     		b	.L3
 145              	.L11:
 146              		.loc 1 156 0
 147 0084 FFF7FEFF 		bl	clear_leds
 148              	.LVL11:
 149              		.loc 1 157 0
 150 0088 85F80080 		strb	r8, [r5]
 151 008c CEE7     		b	.L3
 152              	.L13:
 153 008e 00BF     		.align	2
 154              	.L12:
 155 0090 00000000 		.word	ch
 156 0094 00000000 		.word	__stack_chk_guard
 157 0098 00000000 		.word	.LANCHOR0
 158 009c 00000000 		.word	.LANCHOR1
 159              		.cfi_endproc
 160              	.LFE257:
 161              		.size	LedAnimation, .-LedAnimation
 162              		.section	.text.SoundAnimation,"ax",%progbits
 163              		.align	1
 164              		.p2align 4,,15
 165              		.syntax unified
 166              		.thumb
 167              		.thumb_func
 168              		.fpu fpv4-sp-d16
 169              		.type	SoundAnimation, %function
 170              	SoundAnimation:
 171              	.LFB258:
ARM GAS  C:\Users\laral\AppData\Local\Temp\cc6NYrQu.s 			page 4


 172              		.loc 1 183 0
 173              		.cfi_startproc
 174              		@ Volatile: function does not return.
 175              		@ args = 0, pretend = 0, frame = 8
 176              		@ frame_needed = 0, uses_anonymous_args = 0
 177              	.LVL12:
 178 0000 00B5     		push	{lr}
 179              		.cfi_def_cfa_offset 4
 180              		.cfi_offset 14, -4
 181              	.LBB12:
 182              	.LBB13:
 183              		.loc 2 135 0
 184 0002 094A     		ldr	r2, .L18
 185              	.LBE13:
 186              	.LBE12:
 187              		.loc 1 183 0
 188 0004 094B     		ldr	r3, .L18+4
 189              	.LBB16:
 190              	.LBB14:
 191              		.loc 2 135 0
 192 0006 9269     		ldr	r2, [r2, #24]
 193 0008 0949     		ldr	r1, .L18+8
 194              	.LBE14:
 195              	.LBE16:
 196              		.loc 1 183 0
 197 000a 1B68     		ldr	r3, [r3]
 198              	.LBB17:
 199              	.LBB15:
 200              		.loc 2 135 0
 201 000c 9161     		str	r1, [r2, #24]
 202              	.LBE15:
 203              	.LBE17:
 204              		.loc 1 183 0
 205 000e 83B0     		sub	sp, sp, #12
 206              		.cfi_def_cfa_offset 16
 207              		.loc 1 183 0
 208 0010 0193     		str	r3, [sp, #4]
 209              	.LVL13:
 210              	.L15:
 211              		.loc 1 204 0
 212 0012 0022     		movs	r2, #0
 213 0014 0221     		movs	r1, #2
 214 0016 0D20     		movs	r0, #13
 215 0018 FFF7FEFF 		bl	playMelody
 216              	.LVL14:
 217              		.loc 1 211 0
 218 001c 4FF47A60 		mov	r0, #4000
 219 0020 FFF7FEFF 		bl	chThdSleep
 220              	.LVL15:
 221 0024 F5E7     		b	.L15
 222              	.L19:
 223 0026 00BF     		.align	2
 224              	.L18:
 225 0028 00000000 		.word	ch
 226 002c 00000000 		.word	__stack_chk_guard
 227 0030 00000000 		.word	.LANCHOR2
 228              		.cfi_endproc
ARM GAS  C:\Users\laral\AppData\Local\Temp\cc6NYrQu.s 			page 5


 229              	.LFE258:
 230              		.size	SoundAnimation, .-SoundAnimation
 231              		.section	.text.led_animation_start,"ax",%progbits
 232              		.align	1
 233              		.p2align 4,,15
 234              		.global	led_animation_start
 235              		.syntax unified
 236              		.thumb
 237              		.thumb_func
 238              		.fpu fpv4-sp-d16
 239              		.type	led_animation_start, %function
 240              	led_animation_start:
 241              	.LFB259:
 242              		.loc 1 220 0
 243              		.cfi_startproc
 244              		@ args = 0, pretend = 0, frame = 8
 245              		@ frame_needed = 0, uses_anonymous_args = 0
 246 0000 10B5     		push	{r4, lr}
 247              		.cfi_def_cfa_offset 8
 248              		.cfi_offset 4, -8
 249              		.cfi_offset 14, -4
 250 0002 0A4C     		ldr	r4, .L24
 251              		.loc 1 221 0
 252 0004 0A4B     		ldr	r3, .L24+4
 253              		.loc 1 220 0
 254 0006 2268     		ldr	r2, [r4]
 255              		.loc 1 221 0
 256 0008 0A48     		ldr	r0, .L24+8
 257              		.loc 1 220 0
 258 000a 84B0     		sub	sp, sp, #16
 259              		.cfi_def_cfa_offset 24
 260              		.loc 1 221 0
 261 000c 4FF4AF61 		mov	r1, #1400
 262              		.loc 1 220 0
 263 0010 0392     		str	r2, [sp, #12]
 264              		.loc 1 221 0
 265 0012 0022     		movs	r2, #0
 266 0014 0092     		str	r2, [sp]
 267 0016 4022     		movs	r2, #64
 268 0018 FFF7FEFF 		bl	chThdCreateStatic
 269              	.LVL16:
 270              		.loc 1 222 0
 271 001c 039A     		ldr	r2, [sp, #12]
 272 001e 2368     		ldr	r3, [r4]
 273 0020 9A42     		cmp	r2, r3
 274 0022 01D1     		bne	.L23
 275 0024 04B0     		add	sp, sp, #16
 276              		.cfi_remember_state
 277              		.cfi_def_cfa_offset 8
 278              		@ sp needed
 279 0026 10BD     		pop	{r4, pc}
 280              	.L23:
 281              		.cfi_restore_state
 282 0028 FFF7FEFF 		bl	__stack_chk_fail
 283              	.LVL17:
 284              	.L25:
 285              		.align	2
ARM GAS  C:\Users\laral\AppData\Local\Temp\cc6NYrQu.s 			page 6


 286              	.L24:
 287 002c 00000000 		.word	__stack_chk_guard
 288 0030 00000000 		.word	LedAnimation
 289 0034 00000000 		.word	.LANCHOR3
 290              		.cfi_endproc
 291              	.LFE259:
 292              		.size	led_animation_start, .-led_animation_start
 293              		.section	.text.sound_animation_start,"ax",%progbits
 294              		.align	1
 295              		.p2align 4,,15
 296              		.global	sound_animation_start
 297              		.syntax unified
 298              		.thumb
 299              		.thumb_func
 300              		.fpu fpv4-sp-d16
 301              		.type	sound_animation_start, %function
 302              	sound_animation_start:
 303              	.LFB260:
 304              		.loc 1 224 0
 305              		.cfi_startproc
 306              		@ args = 0, pretend = 0, frame = 8
 307              		@ frame_needed = 0, uses_anonymous_args = 0
 308 0000 10B5     		push	{r4, lr}
 309              		.cfi_def_cfa_offset 8
 310              		.cfi_offset 4, -8
 311              		.cfi_offset 14, -4
 312 0002 0A4C     		ldr	r4, .L30
 313              		.loc 1 225 0
 314 0004 0A4B     		ldr	r3, .L30+4
 315              		.loc 1 224 0
 316 0006 2268     		ldr	r2, [r4]
 317              		.loc 1 225 0
 318 0008 0A48     		ldr	r0, .L30+8
 319              		.loc 1 224 0
 320 000a 84B0     		sub	sp, sp, #16
 321              		.cfi_def_cfa_offset 24
 322              		.loc 1 225 0
 323 000c 4FF4AF61 		mov	r1, #1400
 324              		.loc 1 224 0
 325 0010 0392     		str	r2, [sp, #12]
 326              		.loc 1 225 0
 327 0012 0022     		movs	r2, #0
 328 0014 0092     		str	r2, [sp]
 329 0016 4022     		movs	r2, #64
 330 0018 FFF7FEFF 		bl	chThdCreateStatic
 331              	.LVL18:
 332              		.loc 1 226 0
 333 001c 039A     		ldr	r2, [sp, #12]
 334 001e 2368     		ldr	r3, [r4]
 335 0020 9A42     		cmp	r2, r3
 336 0022 01D1     		bne	.L29
 337 0024 04B0     		add	sp, sp, #16
 338              		.cfi_remember_state
 339              		.cfi_def_cfa_offset 8
 340              		@ sp needed
 341 0026 10BD     		pop	{r4, pc}
 342              	.L29:
ARM GAS  C:\Users\laral\AppData\Local\Temp\cc6NYrQu.s 			page 7


 343              		.cfi_restore_state
 344 0028 FFF7FEFF 		bl	__stack_chk_fail
 345              	.LVL19:
 346              	.L31:
 347              		.align	2
 348              	.L30:
 349 002c 00000000 		.word	__stack_chk_guard
 350 0030 00000000 		.word	SoundAnimation
 351 0034 00000000 		.word	.LANCHOR4
 352              		.cfi_endproc
 353              	.LFE260:
 354              		.size	sound_animation_start, .-sound_animation_start
 355              		.section	.bss.i,"aw",%nobits
 356              		.set	.LANCHOR1,. + 0
 357              		.type	i, %object
 358              		.size	i, 1
 359              	i:
 360 0000 00       		.space	1
 361              		.section	.bss.waLedAnimation,"aw",%nobits
 362              		.align	3
 363              		.set	.LANCHOR3,. + 0
 364              		.type	waLedAnimation, %object
 365              		.size	waLedAnimation, 1400
 366              	waLedAnimation:
 367 0000 00000000 		.space	1400
 367      00000000 
 367      00000000 
 367      00000000 
 367      00000000 
 368              		.section	.bss.waSoundAnimation,"aw",%nobits
 369              		.align	3
 370              		.set	.LANCHOR4,. + 0
 371              		.type	waSoundAnimation, %object
 372              		.size	waSoundAnimation, 1400
 373              	waSoundAnimation:
 374 0000 00000000 		.space	1400
 374      00000000 
 374      00000000 
 374      00000000 
 374      00000000 
 375              		.section	.rodata.__FUNCTION__.11982,"a",%progbits
 376              		.align	2
 377              		.set	.LANCHOR0,. + 0
 378              		.type	__FUNCTION__.11982, %object
 379              		.size	__FUNCTION__.11982, 13
 380              	__FUNCTION__.11982:
 381 0000 4C656441 		.ascii	"LedAnimation\000"
 381      6E696D61 
 381      74696F6E 
 381      00
 382              		.section	.rodata.__FUNCTION__.11995,"a",%progbits
 383              		.align	2
 384              		.set	.LANCHOR2,. + 0
 385              		.type	__FUNCTION__.11995, %object
 386              		.size	__FUNCTION__.11995, 15
 387              	__FUNCTION__.11995:
 388 0000 536F756E 		.ascii	"SoundAnimation\000"
ARM GAS  C:\Users\laral\AppData\Local\Temp\cc6NYrQu.s 			page 8


 388      64416E69 
 388      6D617469 
 388      6F6E00
 389              		.text
 390              	.Letext0:
 391              		.file 3 "c:\\users\\laral\\desktop\\eclipse_e-puck2_win32_29_jan_2020\\eclipse_e-puck2\\tools\\gcc
 392              		.file 4 "c:\\users\\laral\\desktop\\eclipse_e-puck2_win32_29_jan_2020\\eclipse_e-puck2\\tools\\gcc
 393              		.file 5 "c:\\users\\laral\\desktop\\eclipse_e-puck2_win32_29_jan_2020\\eclipse_e-puck2\\tools\\gcc
 394              		.file 6 "../projet/e-puck2_main-processor/ChibiOS//os/rt/ports/ARMCMx/compilers/GCC/chtypes.h"
 395              		.file 7 "../projet/e-puck2_main-processor/ChibiOS//os/rt/include/chsystypes.h"
 396              		.file 8 "../projet/e-puck2_main-processor/ChibiOS//os/rt/include/chschd.h"
 397              		.file 9 "../projet/e-puck2_main-processor/ChibiOS//os/ext/CMSIS/include/core_cm4.h"
 398              		.file 10 "../projet/e-puck2_main-processor/ChibiOS//os/ext/CMSIS/ST/system_stm32f4xx.h"
 399              		.file 11 "../projet/e-puck2_main-processor/ChibiOS//os/ext/CMSIS/ST/stm32f407xx.h"
 400              		.file 12 "../projet/e-puck2_main-processor/ChibiOS//os/rt/ports/ARMCMx/chcore.h"
 401              		.file 13 "../projet/e-puck2_main-processor/ChibiOS//os/rt/ports/ARMCMx/chcore_v7m.h"
 402              		.file 14 "../projet/e-puck2_main-processor/ChibiOS//os/rt/include/chdebug.h"
 403              		.file 15 "../projet/e-puck2_main-processor/ChibiOS//os/rt/include/chtm.h"
 404              		.file 16 "../projet/e-puck2_main-processor/ChibiOS//os/rt/include/chstats.h"
 405              		.file 17 "../projet/e-puck2_main-processor/ChibiOS//os/rt/include/chsem.h"
 406              		.file 18 "../projet/e-puck2_main-processor/ChibiOS//os/rt/include/chmtx.h"
 407              		.file 19 "../projet/e-puck2_main-processor/ChibiOS//os/rt/include/chevents.h"
 408              		.file 20 "../projet/e-puck2_main-processor/ChibiOS//os/rt/include/chqueues.h"
 409              		.file 21 "../projet/e-puck2_main-processor/ChibiOS//os/hal/ports/STM32/STM32F4xx/stm32_dma.h"
 410              		.file 22 "../projet/e-puck2_main-processor/ChibiOS//os/hal/include/hal_ioblock.h"
 411              		.file 23 "../projet/e-puck2_main-processor/ChibiOS//os/hal/ports/STM32/LLD/GPIOv2/pal_lld.h"
 412              		.file 24 "../projet/e-puck2_main-processor/ChibiOS//os/hal/include/adc.h"
 413              		.file 25 "../projet/e-puck2_main-processor/ChibiOS//os/hal/ports/STM32/STM32F4xx/adc_lld.h"
 414              		.file 26 "../projet/e-puck2_main-processor/ChibiOS//os/hal/include/can.h"
 415              		.file 27 "../projet/e-puck2_main-processor/ChibiOS//os/hal/ports/STM32/LLD/can_lld.h"
 416              		.file 28 "../projet/e-puck2_main-processor/ChibiOS//os/hal/include/dac.h"
 417              		.file 29 "../projet/e-puck2_main-processor/ChibiOS//os/hal/ports/STM32/LLD/DACv1/dac_lld.h"
 418              		.file 30 "../projet/e-puck2_main-processor/ChibiOS//os/hal/include/ext.h"
 419              		.file 31 "../projet/e-puck2_main-processor/ChibiOS//os/hal/ports/STM32/LLD/ext_lld.h"
 420              		.file 32 "../projet/e-puck2_main-processor/ChibiOS//os/hal/include/gpt.h"
 421              		.file 33 "../projet/e-puck2_main-processor/ChibiOS//os/hal/ports/STM32/LLD/TIMv1/gpt_lld.h"
 422              		.file 34 "../projet/e-puck2_main-processor/ChibiOS//os/hal/ports/STM32/LLD/TIMv1/stm32_tim.h"
 423              		.file 35 "../projet/e-puck2_main-processor/ChibiOS//os/hal/include/i2c.h"
 424              		.file 36 "../projet/e-puck2_main-processor/ChibiOS//os/hal/ports/STM32/LLD/I2Cv1/i2c_lld.h"
 425              		.file 37 "../projet/e-puck2_main-processor/ChibiOS//os/hal/include/i2s.h"
 426              		.file 38 "../projet/e-puck2_main-processor/ChibiOS//os/hal/ports/STM32/LLD/SPIv1/i2s_lld.h"
 427              		.file 39 "../projet/e-puck2_main-processor/ChibiOS//os/hal/include/pwm.h"
 428              		.file 40 "../projet/e-puck2_main-processor/ChibiOS//os/hal/ports/STM32/LLD/TIMv1/pwm_lld.h"
 429              		.file 41 "../projet/e-puck2_main-processor/ChibiOS//os/hal/include/serial.h"
 430              		.file 42 "../projet/e-puck2_main-processor/ChibiOS//os/hal/ports/STM32/LLD/USARTv1/serial_lld.h"
 431              		.file 43 "../projet/e-puck2_main-processor/ChibiOS//os/hal/include/sdc.h"
 432              		.file 44 "../projet/e-puck2_main-processor/ChibiOS//os/hal/ports/STM32/LLD/sdc_lld.h"
 433              		.file 45 "../projet/e-puck2_main-processor/ChibiOS//os/hal/include/spi.h"
 434              		.file 46 "../projet/e-puck2_main-processor/ChibiOS//os/hal/ports/STM32/LLD/SPIv1/spi_lld.h"
 435              		.file 47 "../projet/e-puck2_main-processor/ChibiOS//os/hal/include/usb.h"
 436              		.file 48 "../projet/e-puck2_main-processor/ChibiOS//os/hal/ports/STM32/LLD/OTGv1/usb_lld.h"
 437              		.file 49 "../projet/e-puck2_main-processor/ChibiOS//os/hal/ports/STM32/LLD/OTGv1/stm32_otg.h"
 438              		.file 50 "../projet/e-puck2_main-processor/ChibiOS//os/hal/include/serial_usb.h"
 439              		.file 51 "c:\\users\\laral\\desktop\\eclipse_e-puck2_win32_29_jan_2020\\eclipse_e-puck2\\tools\\gc
 440              		.file 52 "c:\\users\\laral\\desktop\\eclipse_e-puck2_win32_29_jan_2020\\eclipse_e-puck2\\tools\\gc
 441              		.file 53 "c:\\users\\laral\\desktop\\eclipse_e-puck2_win32_29_jan_2020\\eclipse_e-puck2\\tools\\gc
 442              		.file 54 "c:\\users\\laral\\desktop\\eclipse_e-puck2_win32_29_jan_2020\\eclipse_e-puck2\\tools\\gc
ARM GAS  C:\Users\laral\AppData\Local\Temp\cc6NYrQu.s 			page 9


 443              		.file 55 "../projet/e-puck2_main-processor/ChibiOS_ext/os/hal/include/../ports/STM32/STM32F4xx/dcm
 444              		.file 56 "c:\\users\\laral\\desktop\\eclipse_e-puck2_win32_29_jan_2020\\eclipse_e-puck2\\tools\\gc
 445              		.file 57 "../projet/e-puck2_main-processor/src/msgbus/messagebus.h"
 446              		.file 58 "c:\\users\\laral\\desktop\\eclipse_e-puck2_win32_29_jan_2020\\eclipse_e-puck2\\tools\\gc
 447              		.file 59 "../projet/e-puck2_main-processor/src/parameter/parameter.h"
 448              		.file 60 "./main.h"
 449              		.file 61 "../projet/e-puck2_main-processor/src/usbcfg.h"
 450              		.file 62 "../projet/e-puck2_main-processor/src/leds.h"
 451              		.file 63 "./animation.h"
 452              		.file 64 "../projet/e-puck2_main-processor/src/audio/play_melody.h"
 453              		.file 65 "../projet/e-puck2_main-processor/ChibiOS//os/rt/include/chthreads.h"