ARM GAS  /var/folders/r3/l17pxy9j13749mq5h96642rc0000gn/T//cctcQWhQ.s 			page 1


   1              		.cpu cortex-m4
   2              		.eabi_attribute 27, 1
   3              		.eabi_attribute 28, 1
   4              		.eabi_attribute 20, 1
   5              		.eabi_attribute 21, 1
   6              		.eabi_attribute 23, 3
   7              		.eabi_attribute 24, 1
   8              		.eabi_attribute 25, 1
   9              		.eabi_attribute 26, 1
  10              		.eabi_attribute 30, 2
  11              		.eabi_attribute 34, 1
  12              		.eabi_attribute 18, 4
  13              		.file	"main.c"
  14              		.text
  15              	.Ltext0:
  16              		.cfi_sections	.debug_frame
  17              		.section	.text.chprintf.constprop.0,"ax",%progbits
  18              		.align	1
  19              		.p2align 4,,15
  20              		.syntax unified
  21              		.thumb
  22              		.thumb_func
  23              		.fpu fpv4-sp-d16
  24              		.type	chprintf.constprop.0, %function
  25              	chprintf.constprop.0:
  26              	.LFB298:
  27              		.file 1 "../projet/e-puck2_main-processor/ChibiOS//os/hal/lib/streams/chprintf.h"
  28              		.loc 1 69 0
  29              		.cfi_startproc
  30              		@ args = 4, pretend = 12, frame = 8
  31              		@ frame_needed = 0, uses_anonymous_args = 1
  32              	.LVL0:
  33 0000 0EB4     		push	{r1, r2, r3}
  34              		.cfi_def_cfa_offset 12
  35              		.cfi_offset 1, -12
  36              		.cfi_offset 2, -8
  37              		.cfi_offset 3, -4
  38 0002 10B5     		push	{r4, lr}
  39              		.cfi_def_cfa_offset 20
  40              		.cfi_offset 4, -20
  41              		.cfi_offset 14, -16
  42 0004 0A4C     		ldr	r4, .L6
  43              		.loc 1 74 0
  44 0006 0B49     		ldr	r1, .L6+4
  45              		.loc 1 69 0
  46 0008 2368     		ldr	r3, [r4]
  47              		.loc 1 74 0
  48 000a 0B48     		ldr	r0, .L6+8
  49              	.LVL1:
  50              		.loc 1 69 0
  51 000c 83B0     		sub	sp, sp, #12
  52              		.cfi_def_cfa_offset 32
  53              		.loc 1 69 0
  54 000e 0193     		str	r3, [sp, #4]
  55              	.LVL2:
  56              		.loc 1 73 0
  57 0010 06AB     		add	r3, sp, #24
ARM GAS  /var/folders/r3/l17pxy9j13749mq5h96642rc0000gn/T//cctcQWhQ.s 			page 2


  58              		.loc 1 74 0
  59 0012 1A46     		mov	r2, r3
  60              		.loc 1 73 0
  61 0014 0093     		str	r3, [sp]
  62              		.loc 1 74 0
  63 0016 FFF7FEFF 		bl	chvprintf
  64              	.LVL3:
  65              		.loc 1 78 0
  66 001a 019A     		ldr	r2, [sp, #4]
  67 001c 2368     		ldr	r3, [r4]
  68 001e 9A42     		cmp	r2, r3
  69 0020 04D1     		bne	.L5
  70 0022 03B0     		add	sp, sp, #12
  71              		.cfi_remember_state
  72              		.cfi_def_cfa_offset 20
  73              		@ sp needed
  74 0024 BDE81040 		pop	{r4, lr}
  75              		.cfi_restore 14
  76              		.cfi_restore 4
  77              		.cfi_def_cfa_offset 12
  78 0028 03B0     		add	sp, sp, #12
  79              		.cfi_restore 3
  80              		.cfi_restore 2
  81              		.cfi_restore 1
  82              		.cfi_def_cfa_offset 0
  83 002a 7047     		bx	lr
  84              	.L5:
  85              		.cfi_restore_state
  86 002c FFF7FEFF 		bl	__stack_chk_fail
  87              	.LVL4:
  88              	.L7:
  89              		.align	2
  90              	.L6:
  91 0030 00000000 		.word	__stack_chk_guard
  92 0034 00000000 		.word	.LC0
  93 0038 00000000 		.word	SDU1
  94              		.cfi_endproc
  95              	.LFE298:
  96              		.size	chprintf.constprop.0, .-chprintf.constprop.0
  97              		.section	.text.SendUint8ToComputer,"ax",%progbits
  98              		.align	1
  99              		.p2align 4,,15
 100              		.global	SendUint8ToComputer
 101              		.syntax unified
 102              		.thumb
 103              		.thumb_func
 104              		.fpu fpv4-sp-d16
 105              		.type	SendUint8ToComputer, %function
 106              	SendUint8ToComputer:
 107              	.LFB293:
 108              		.file 2 "main.c"
 109              		.loc 2 23 0
 110              		.cfi_startproc
 111              		@ args = 0, pretend = 0, frame = 16
 112              		@ frame_needed = 0, uses_anonymous_args = 0
 113              	.LVL5:
 114 0000 70B5     		push	{r4, r5, r6, lr}
ARM GAS  /var/folders/r3/l17pxy9j13749mq5h96642rc0000gn/T//cctcQWhQ.s 			page 3


 115              		.cfi_def_cfa_offset 16
 116              		.cfi_offset 4, -16
 117              		.cfi_offset 5, -12
 118              		.cfi_offset 6, -8
 119              		.cfi_offset 14, -4
 120              		.loc 2 24 0
 121 0002 124C     		ldr	r4, .L12
 122              		.loc 2 23 0
 123 0004 124D     		ldr	r5, .L12+4
 124              		.loc 2 24 0
 125 0006 2368     		ldr	r3, [r4]
 126              		.loc 2 23 0
 127 0008 2A68     		ldr	r2, [r5]
 128 000a 84B0     		sub	sp, sp, #16
 129              		.cfi_def_cfa_offset 32
 130              		.loc 2 23 0
 131 000c 0646     		mov	r6, r0
 132 000e ADF80610 		strh	r1, [sp, #6]	@ movhi
 133              		.loc 2 24 0
 134 0012 1B68     		ldr	r3, [r3]
 135 0014 0F49     		ldr	r1, .L12+8
 136              	.LVL6:
 137              		.loc 2 23 0
 138 0016 0392     		str	r2, [sp, #12]
 139              		.loc 2 24 0
 140 0018 2046     		mov	r0, r4
 141              	.LVL7:
 142 001a 0522     		movs	r2, #5
 143 001c 9847     		blx	r3
 144              	.LVL8:
 145              		.loc 2 25 0
 146 001e 2368     		ldr	r3, [r4]
 147 0020 0222     		movs	r2, #2
 148 0022 1B68     		ldr	r3, [r3]
 149 0024 0DF10601 		add	r1, sp, #6
 150 0028 2046     		mov	r0, r4
 151 002a 9847     		blx	r3
 152              	.LVL9:
 153              		.loc 2 26 0
 154 002c 2368     		ldr	r3, [r4]
 155 002e BDF80620 		ldrh	r2, [sp, #6]
 156 0032 1B68     		ldr	r3, [r3]
 157 0034 3146     		mov	r1, r6
 158 0036 2046     		mov	r0, r4
 159 0038 9847     		blx	r3
 160              	.LVL10:
 161              		.loc 2 27 0
 162 003a 039A     		ldr	r2, [sp, #12]
 163 003c 2B68     		ldr	r3, [r5]
 164 003e 9A42     		cmp	r2, r3
 165 0040 01D1     		bne	.L11
 166 0042 04B0     		add	sp, sp, #16
 167              		.cfi_remember_state
 168              		.cfi_def_cfa_offset 16
 169              		@ sp needed
 170 0044 70BD     		pop	{r4, r5, r6, pc}
 171              	.LVL11:
ARM GAS  /var/folders/r3/l17pxy9j13749mq5h96642rc0000gn/T//cctcQWhQ.s 			page 4


 172              	.L11:
 173              		.cfi_restore_state
 174 0046 FFF7FEFF 		bl	__stack_chk_fail
 175              	.LVL12:
 176              	.L13:
 177 004a 00BF     		.align	2
 178              	.L12:
 179 004c 00000000 		.word	SD3
 180 0050 00000000 		.word	__stack_chk_guard
 181 0054 00000000 		.word	.LC1
 182              		.cfi_endproc
 183              	.LFE293:
 184              		.size	SendUint8ToComputer, .-SendUint8ToComputer
 185              		.global	__aeabi_f2d
 186              		.section	.text.startup.main,"ax",%progbits
 187              		.align	1
 188              		.p2align 4,,15
 189              		.global	main
 190              		.syntax unified
 191              		.thumb
 192              		.thumb_func
 193              		.fpu fpv4-sp-d16
 194              		.type	main, %function
 195              	main:
 196              	.LFB296:
 197              		.loc 2 59 0
 198              		.cfi_startproc
 199              		@ Volatile: function does not return.
 200              		@ args = 0, pretend = 0, frame = 8
 201              		@ frame_needed = 0, uses_anonymous_args = 0
 202 0000 00B5     		push	{lr}
 203              		.cfi_def_cfa_offset 4
 204              		.cfi_offset 14, -4
 205 0002 1C4B     		ldr	r3, .L18
 206              		.loc 2 94 0
 207 0004 1C4D     		ldr	r5, .L18+4
 208              		.loc 2 59 0
 209 0006 1B68     		ldr	r3, [r3]
 210              		.loc 2 94 0
 211 0008 1C4C     		ldr	r4, .L18+8
 212              		.loc 2 59 0
 213 000a 83B0     		sub	sp, sp, #12
 214              		.cfi_def_cfa_offset 16
 215              		.loc 2 59 0
 216 000c 0193     		str	r3, [sp, #4]
 217              		.loc 2 61 0
 218 000e FFF7FEFF 		bl	halInit
 219              	.LVL13:
 220              		.loc 2 62 0
 221 0012 FFF7FEFF 		bl	chSysInit
 222              	.LVL14:
 223              		.loc 2 63 0
 224 0016 FFF7FEFF 		bl	mpu_init
 225              	.LVL15:
 226              	.LBB8:
 227              	.LBB9:
 228              		.loc 2 39 0
ARM GAS  /var/folders/r3/l17pxy9j13749mq5h96642rc0000gn/T//cctcQWhQ.s 			page 5


 229 001a 1949     		ldr	r1, .L18+12
 230 001c 1948     		ldr	r0, .L18+16
 231 001e FFF7FEFF 		bl	sdStart
 232              	.LVL16:
 233              	.LBE9:
 234              	.LBE8:
 235              		.loc 2 69 0
 236 0022 FFF7FEFF 		bl	usb_start
 237              	.LVL17:
 238              	.LBB10:
 239              	.LBB11:
 240              		.loc 2 53 0
 241 0026 1849     		ldr	r1, .L18+20
 242 0028 1848     		ldr	r0, .L18+24
 243 002a FFF7FEFF 		bl	gptStart
 244              	.LVL18:
 245              		.loc 2 55 0
 246 002e 4FF6FF71 		movw	r1, #65535
 247 0032 1648     		ldr	r0, .L18+24
 248 0034 FFF7FEFF 		bl	gptStartContinuous
 249              	.LVL19:
 250              	.LBE11:
 251              	.LBE10:
 252              		.loc 2 71 0
 253 0038 FFF7FEFF 		bl	motors_init
 254              	.LVL20:
 255              		.loc 2 74 0
 256 003c FFF7FEFF 		bl	dcmi_start
 257              	.LVL21:
 258              		.loc 2 75 0
 259 0040 FFF7FEFF 		bl	po8030_start
 260              	.LVL22:
 261              		.loc 2 78 0
 262 0044 FFF7FEFF 		bl	VL53L0X_start
 263              	.LVL23:
 264              		.loc 2 83 0
 265 0048 FFF7FEFF 		bl	process_image_start
 266              	.LVL24:
 267              		.loc 2 88 0
 268 004c 1048     		ldr	r0, .L18+28
 269 004e FFF7FEFF 		bl	mic_start
 270              	.LVL25:
 271              	.L15:
 272              		.loc 2 93 0 discriminator 1
 273 0052 4FF47A70 		mov	r0, #1000
 274 0056 FFF7FEFF 		bl	chThdSleep
 275              	.LVL26:
 276              		.loc 2 94 0 discriminator 1
 277 005a FFF7FEFF 		bl	get_angle
 278              	.LVL27:
 279 005e 10EE100A 		vmov	r0, s0
 280 0062 FFF7FEFF 		bl	__aeabi_f2d
 281              	.LVL28:
 282 0066 0246     		mov	r2, r0
 283 0068 0B46     		mov	r3, r1
 284 006a 2046     		mov	r0, r4
 285 006c 2946     		mov	r1, r5
ARM GAS  /var/folders/r3/l17pxy9j13749mq5h96642rc0000gn/T//cctcQWhQ.s 			page 6


 286 006e FFF7FEFF 		bl	chprintf.constprop.0
 287              	.LVL29:
 288 0072 EEE7     		b	.L15
 289              	.L19:
 290              		.align	2
 291              	.L18:
 292 0074 00000000 		.word	__stack_chk_guard
 293 0078 00000000 		.word	.LC0
 294 007c 00000000 		.word	SDU1
 295 0080 00000000 		.word	.LANCHOR0
 296 0084 00000000 		.word	SD3
 297 0088 00000000 		.word	.LANCHOR1
 298 008c 00000000 		.word	GPTD12
 299 0090 00000000 		.word	processAudioData
 300              		.cfi_endproc
 301              	.LFE296:
 302              		.size	main, .-main
 303              		.section	.text.__stack_chk_fail,"ax",%progbits
 304              		.align	1
 305              		.p2align 4,,15
 306              		.global	__stack_chk_fail
 307              		.syntax unified
 308              		.thumb
 309              		.thumb_func
 310              		.fpu fpv4-sp-d16
 311              		.type	__stack_chk_fail, %function
 312              	__stack_chk_fail:
 313              	.LFB297:
 314              		.loc 2 105 0
 315              		.cfi_startproc
 316              		@ args = 0, pretend = 0, frame = 8
 317              		@ frame_needed = 0, uses_anonymous_args = 0
 318 0000 00B5     		push	{lr}
 319              		.cfi_def_cfa_offset 4
 320              		.cfi_offset 14, -4
 321 0002 084B     		ldr	r3, .L25
 322 0004 83B0     		sub	sp, sp, #12
 323              		.cfi_def_cfa_offset 16
 324              		.loc 2 105 0
 325 0006 1A68     		ldr	r2, [r3]
 326 0008 0192     		str	r2, [sp, #4]
 327              		.loc 2 106 0
 328 000a 019A     		ldr	r2, [sp, #4]
 329 000c 1B68     		ldr	r3, [r3]
 330 000e 9A42     		cmp	r2, r3
 331 0010 05D1     		bne	.L24
 332 0012 0548     		ldr	r0, .L25+4
 333              		.loc 2 107 0
 334 0014 03B0     		add	sp, sp, #12
 335              		.cfi_remember_state
 336              		.cfi_def_cfa_offset 4
 337              		@ sp needed
 338 0016 5DF804EB 		ldr	lr, [sp], #4
 339              		.cfi_restore 14
 340              		.cfi_def_cfa_offset 0
 341              		.loc 2 106 0
 342 001a FFF7FEBF 		b	chSysHalt
ARM GAS  /var/folders/r3/l17pxy9j13749mq5h96642rc0000gn/T//cctcQWhQ.s 			page 7


 343              	.LVL30:
 344              	.L24:
 345              		.cfi_restore_state
 346 001e FFF7FEFF 		bl	__stack_chk_fail
 347              	.LVL31:
 348              	.L26:
 349 0022 00BF     		.align	2
 350              	.L25:
 351 0024 00000000 		.word	__stack_chk_guard
 352 0028 00000000 		.word	.LC2
 353              		.cfi_endproc
 354              	.LFE297:
 355              		.size	__stack_chk_fail, .-__stack_chk_fail
 356              		.global	__stack_chk_guard
 357              		.section	.data.__stack_chk_guard,"aw",%progbits
 358              		.align	2
 359              		.type	__stack_chk_guard, %object
 360              		.size	__stack_chk_guard, 4
 361              	__stack_chk_guard:
 362 0000 96E3DEE2 		.word	-488709226
 363              		.section	.data.ser_cfg.14904,"aw",%progbits
 364              		.align	2
 365              		.set	.LANCHOR0,. + 0
 366              		.type	ser_cfg.14904, %object
 367              		.size	ser_cfg.14904, 12
 368              	ser_cfg.14904:
 369 0000 00C20100 		.word	115200
 370 0004 0000     		.short	0
 371 0006 0000     		.short	0
 372 0008 0000     		.short	0
 373 000a 0000     		.space	2
 374              		.section	.rodata.SendUint8ToComputer.str1.4,"aMS",%progbits,1
 375              		.align	2
 376              	.LC1:
 377 0000 53544152 		.ascii	"START\000"
 377      5400
 378              		.section	.rodata.__stack_chk_fail.str1.4,"aMS",%progbits,1
 379              		.align	2
 380              	.LC2:
 381 0000 53746163 		.ascii	"Stack smashing detected\000"
 381      6B20736D 
 381      61736869 
 381      6E672064 
 381      65746563 
 382              		.section	.rodata.chprintf.constprop.0.str1.4,"aMS",%progbits,1
 383              		.align	2
 384              	.LC0:
 385 0000 200A2061 		.ascii	" \012 angle : %f\000"
 385      6E676C65 
 385      203A2025 
 385      6600
 386              		.section	.rodata.gpt12cfg.14908,"a",%progbits
 387              		.align	2
 388              		.set	.LANCHOR1,. + 0
 389              		.type	gpt12cfg.14908, %object
 390              		.size	gpt12cfg.14908, 16
 391              	gpt12cfg.14908:
ARM GAS  /var/folders/r3/l17pxy9j13749mq5h96642rc0000gn/T//cctcQWhQ.s 			page 8


 392 0000 40420F00 		.word	1000000
 393 0004 00000000 		.word	0
 394 0008 00000000 		.word	0
 395 000c 00000000 		.word	0
 396              		.text
 397              	.Letext0:
 398              		.file 3 "/Applications/Eclipse_e-puck2.app/Contents/Eclipse_e-puck2/Tools/gcc-arm-none-eabi-7-2017
 399              		.file 4 "/Applications/Eclipse_e-puck2.app/Contents/Eclipse_e-puck2/Tools/gcc-arm-none-eabi-7-2017
 400              		.file 5 "/Applications/Eclipse_e-puck2.app/Contents/Eclipse_e-puck2/Tools/gcc-arm-none-eabi-7-2017
 401              		.file 6 "/Applications/Eclipse_e-puck2.app/Contents/Eclipse_e-puck2/Tools/gcc-arm-none-eabi-7-2017
 402              		.file 7 "/Applications/Eclipse_e-puck2.app/Contents/Eclipse_e-puck2/Tools/gcc-arm-none-eabi-7-2017
 403              		.file 8 "/Applications/Eclipse_e-puck2.app/Contents/Eclipse_e-puck2/Tools/gcc-arm-none-eabi-7-2017
 404              		.file 9 "/Applications/Eclipse_e-puck2.app/Contents/Eclipse_e-puck2/Tools/gcc-arm-none-eabi-7-2017
 405              		.file 10 "<built-in>"
 406              		.file 11 "/Applications/Eclipse_e-puck2.app/Contents/Eclipse_e-puck2/Tools/gcc-arm-none-eabi-7-201
 407              		.file 12 "/Applications/Eclipse_e-puck2.app/Contents/Eclipse_e-puck2/Tools/gcc-arm-none-eabi-7-201
 408              		.file 13 "/Applications/Eclipse_e-puck2.app/Contents/Eclipse_e-puck2/Tools/gcc-arm-none-eabi-7-201
 409              		.file 14 "../projet/e-puck2_main-processor/ChibiOS//os/rt/ports/ARMCMx/compilers/GCC/chtypes.h"
 410              		.file 15 "../projet/e-puck2_main-processor/ChibiOS//os/rt/include/chsystypes.h"
 411              		.file 16 "../projet/e-puck2_main-processor/ChibiOS//os/rt/include/chschd.h"
 412              		.file 17 "../projet/e-puck2_main-processor/ChibiOS//os/ext/CMSIS/include/core_cm4.h"
 413              		.file 18 "../projet/e-puck2_main-processor/ChibiOS//os/ext/CMSIS/ST/system_stm32f4xx.h"
 414              		.file 19 "../projet/e-puck2_main-processor/ChibiOS//os/ext/CMSIS/ST/stm32f407xx.h"
 415              		.file 20 "../projet/e-puck2_main-processor/ChibiOS//os/rt/ports/ARMCMx/chcore.h"
 416              		.file 21 "../projet/e-puck2_main-processor/ChibiOS//os/rt/ports/ARMCMx/chcore_v7m.h"
 417              		.file 22 "../projet/e-puck2_main-processor/ChibiOS//os/rt/include/chdebug.h"
 418              		.file 23 "../projet/e-puck2_main-processor/ChibiOS//os/rt/include/chtm.h"
 419              		.file 24 "../projet/e-puck2_main-processor/ChibiOS//os/rt/include/chstats.h"
 420              		.file 25 "../projet/e-puck2_main-processor/ChibiOS//os/rt/include/chsem.h"
 421              		.file 26 "../projet/e-puck2_main-processor/ChibiOS//os/rt/include/chmtx.h"
 422              		.file 27 "../projet/e-puck2_main-processor/ChibiOS//os/rt/include/chregistry.h"
 423              		.file 28 "../projet/e-puck2_main-processor/ChibiOS//os/rt/include/chevents.h"
 424              		.file 29 "../projet/e-puck2_main-processor/ChibiOS//os/rt/include/chqueues.h"
 425              		.file 30 "../projet/e-puck2_main-processor/ChibiOS//os/rt/include/chstreams.h"
 426              		.file 31 "../projet/e-puck2_main-processor/ChibiOS//os/hal/ports/STM32/STM32F4xx/stm32_dma.h"
 427              		.file 32 "../projet/e-puck2_main-processor/ChibiOS//os/hal/include/hal_ioblock.h"
 428              		.file 33 "../projet/e-puck2_main-processor/ChibiOS//os/hal/ports/STM32/LLD/GPIOv2/pal_lld.h"
 429              		.file 34 "../projet/e-puck2_main-processor/ChibiOS//os/hal/include/adc.h"
 430              		.file 35 "../projet/e-puck2_main-processor/ChibiOS//os/hal/ports/STM32/STM32F4xx/adc_lld.h"
 431              		.file 36 "../projet/e-puck2_main-processor/ChibiOS//os/hal/include/can.h"
 432              		.file 37 "../projet/e-puck2_main-processor/ChibiOS//os/hal/ports/STM32/LLD/can_lld.h"
 433              		.file 38 "../projet/e-puck2_main-processor/ChibiOS//os/hal/include/dac.h"
 434              		.file 39 "../projet/e-puck2_main-processor/ChibiOS//os/hal/ports/STM32/LLD/DACv1/dac_lld.h"
 435              		.file 40 "../projet/e-puck2_main-processor/ChibiOS//os/hal/include/ext.h"
 436              		.file 41 "../projet/e-puck2_main-processor/ChibiOS//os/hal/ports/STM32/LLD/ext_lld.h"
 437              		.file 42 "../projet/e-puck2_main-processor/ChibiOS//os/hal/include/gpt.h"
 438              		.file 43 "../projet/e-puck2_main-processor/ChibiOS//os/hal/ports/STM32/LLD/TIMv1/gpt_lld.h"
 439              		.file 44 "../projet/e-puck2_main-processor/ChibiOS//os/hal/ports/STM32/LLD/TIMv1/stm32_tim.h"
 440              		.file 45 "../projet/e-puck2_main-processor/ChibiOS//os/hal/include/i2c.h"
 441              		.file 46 "../projet/e-puck2_main-processor/ChibiOS//os/hal/ports/STM32/LLD/I2Cv1/i2c_lld.h"
 442              		.file 47 "../projet/e-puck2_main-processor/ChibiOS//os/hal/include/i2s.h"
 443              		.file 48 "../projet/e-puck2_main-processor/ChibiOS//os/hal/ports/STM32/LLD/SPIv1/i2s_lld.h"
 444              		.file 49 "../projet/e-puck2_main-processor/ChibiOS//os/hal/include/pwm.h"
 445              		.file 50 "../projet/e-puck2_main-processor/ChibiOS//os/hal/ports/STM32/LLD/TIMv1/pwm_lld.h"
 446              		.file 51 "../projet/e-puck2_main-processor/ChibiOS//os/hal/include/serial.h"
 447              		.file 52 "../projet/e-puck2_main-processor/ChibiOS//os/hal/ports/STM32/LLD/USARTv1/serial_lld.h"
 448              		.file 53 "../projet/e-puck2_main-processor/ChibiOS//os/hal/include/sdc.h"
ARM GAS  /var/folders/r3/l17pxy9j13749mq5h96642rc0000gn/T//cctcQWhQ.s 			page 9


 449              		.file 54 "../projet/e-puck2_main-processor/ChibiOS//os/hal/ports/STM32/LLD/sdc_lld.h"
 450              		.file 55 "../projet/e-puck2_main-processor/ChibiOS//os/hal/include/spi.h"
 451              		.file 56 "../projet/e-puck2_main-processor/ChibiOS//os/hal/ports/STM32/LLD/SPIv1/spi_lld.h"
 452              		.file 57 "../projet/e-puck2_main-processor/ChibiOS//os/hal/include/usb.h"
 453              		.file 58 "../projet/e-puck2_main-processor/ChibiOS//os/hal/ports/STM32/LLD/OTGv1/usb_lld.h"
 454              		.file 59 "../projet/e-puck2_main-processor/ChibiOS//os/hal/ports/STM32/LLD/OTGv1/stm32_otg.h"
 455              		.file 60 "../projet/e-puck2_main-processor/ChibiOS//os/hal/include/serial_usb.h"
 456              		.file 61 "../projet/e-puck2_main-processor/ChibiOS_ext/os/hal/include/../ports/STM32/STM32F4xx/dcm
 457              		.file 62 "/Applications/Eclipse_e-puck2.app/Contents/Eclipse_e-puck2/Tools/gcc-arm-none-eabi-7-201
 458              		.file 63 "../projet/e-puck2_main-processor/src/msgbus/messagebus.h"
 459              		.file 64 "../projet/e-puck2_main-processor/src/parameter/parameter.h"
 460              		.file 65 "./main.h"
 461              		.file 66 "../projet/e-puck2_main-processor/src/usbcfg.h"
 462              		.file 67 "../projet/e-puck2_main-processor/ChibiOS//os/rt/include/chsys.h"
 463              		.file 68 "../projet/e-puck2_main-processor/ChibiOS//os/hal/include/hal.h"
 464              		.file 69 "../projet/e-puck2_main-processor/src/memory_protection.h"
 465              		.file 70 "../projet/e-puck2_main-processor/src/motors.h"
 466              		.file 71 "../projet/e-puck2_main-processor/src/camera/dcmi_camera.h"
 467              		.file 72 "../projet/e-puck2_main-processor/src/camera/po8030.h"
 468              		.file 73 "../projet/e-puck2_main-processor/src/audio/microphone.h"
 469              		.file 74 "../projet/e-puck2_main-processor/ChibiOS//os/rt/include/chthreads.h"
 470              		.file 75 "./audio_processing.h"