ARM GAS  /var/folders/r3/l17pxy9j13749mq5h96642rc0000gn/T//ccSEnKqd.s 			page 1


   1              		.cpu cortex-m4
   2              		.eabi_attribute 27, 1
   3              		.eabi_attribute 28, 1
   4              		.eabi_attribute 20, 1
   5              		.eabi_attribute 21, 1
   6              		.eabi_attribute 23, 3
   7              		.eabi_attribute 24, 1
   8              		.eabi_attribute 25, 1
   9              		.eabi_attribute 26, 1
  10              		.eabi_attribute 30, 2
  11              		.eabi_attribute 34, 1
  12              		.eabi_attribute 18, 4
  13              		.file	"motor.c"
  14              		.text
  15              	.Ltext0:
  16              		.cfi_sections	.debug_frame
  17              		.section	.text.go_forward,"ax",%progbits
  18              		.align	1
  19              		.p2align 4,,15
  20              		.global	go_forward
  21              		.syntax unified
  22              		.thumb
  23              		.thumb_func
  24              		.fpu fpv4-sp-d16
  25              		.type	go_forward, %function
  26              	go_forward:
  27              	.LFB257:
  28              		.file 1 "motor.c"
  29              		.loc 1 9 0
  30              		.cfi_startproc
  31              		@ args = 0, pretend = 0, frame = 8
  32              		@ frame_needed = 0, uses_anonymous_args = 0
  33 0000 10B5     		push	{r4, lr}
  34              		.cfi_def_cfa_offset 8
  35              		.cfi_offset 4, -8
  36              		.cfi_offset 14, -4
  37 0002 0A4C     		ldr	r4, .L7
  38 0004 82B0     		sub	sp, sp, #8
  39              		.cfi_def_cfa_offset 16
  40              		.loc 1 9 0
  41 0006 2368     		ldr	r3, [r4]
  42 0008 0193     		str	r3, [sp, #4]
  43              		.loc 1 10 0
  44 000a 4FF41670 		mov	r0, #600
  45 000e FFF7FEFF 		bl	left_motor_set_speed
  46              	.LVL0:
  47              		.loc 1 11 0
  48 0012 019A     		ldr	r2, [sp, #4]
  49 0014 2368     		ldr	r3, [r4]
  50 0016 9A42     		cmp	r2, r3
  51 0018 06D1     		bne	.L6
  52 001a 4FF41670 		mov	r0, #600
  53              		.loc 1 12 0
  54 001e 02B0     		add	sp, sp, #8
  55              		.cfi_remember_state
  56              		.cfi_def_cfa_offset 8
  57              		@ sp needed
ARM GAS  /var/folders/r3/l17pxy9j13749mq5h96642rc0000gn/T//ccSEnKqd.s 			page 2


  58 0020 BDE81040 		pop	{r4, lr}
  59              		.cfi_restore 14
  60              		.cfi_restore 4
  61              		.cfi_def_cfa_offset 0
  62              		.loc 1 11 0
  63 0024 FFF7FEBF 		b	right_motor_set_speed
  64              	.LVL1:
  65              	.L6:
  66              		.cfi_restore_state
  67 0028 FFF7FEFF 		bl	__stack_chk_fail
  68              	.LVL2:
  69              	.L8:
  70              		.align	2
  71              	.L7:
  72 002c 00000000 		.word	__stack_chk_guard
  73              		.cfi_endproc
  74              	.LFE257:
  75              		.size	go_forward, .-go_forward
  76              		.section	.text.turn,"ax",%progbits
  77              		.align	1
  78              		.p2align 4,,15
  79              		.global	turn
  80              		.syntax unified
  81              		.thumb
  82              		.thumb_func
  83              		.fpu fpv4-sp-d16
  84              		.type	turn, %function
  85              	turn:
  86              	.LFB258:
  87              		.loc 1 14 0
  88              		.cfi_startproc
  89              		@ args = 0, pretend = 0, frame = 8
  90              		@ frame_needed = 0, uses_anonymous_args = 0
  91 0000 10B5     		push	{r4, lr}
  92              		.cfi_def_cfa_offset 8
  93              		.cfi_offset 4, -8
  94              		.cfi_offset 14, -4
  95 0002 0A4C     		ldr	r4, .L14
  96              		.loc 1 15 0
  97 0004 0A48     		ldr	r0, .L14+4
  98              		.loc 1 14 0
  99 0006 2368     		ldr	r3, [r4]
 100 0008 82B0     		sub	sp, sp, #8
 101              		.cfi_def_cfa_offset 16
 102              		.loc 1 14 0
 103 000a 0193     		str	r3, [sp, #4]
 104              		.loc 1 15 0
 105 000c FFF7FEFF 		bl	left_motor_set_speed
 106              	.LVL3:
 107              		.loc 1 16 0
 108 0010 019A     		ldr	r2, [sp, #4]
 109 0012 2368     		ldr	r3, [r4]
 110 0014 9A42     		cmp	r2, r3
 111 0016 06D1     		bne	.L13
 112 0018 4FF41670 		mov	r0, #600
 113              		.loc 1 17 0
 114 001c 02B0     		add	sp, sp, #8
ARM GAS  /var/folders/r3/l17pxy9j13749mq5h96642rc0000gn/T//ccSEnKqd.s 			page 3


 115              		.cfi_remember_state
 116              		.cfi_def_cfa_offset 8
 117              		@ sp needed
 118 001e BDE81040 		pop	{r4, lr}
 119              		.cfi_restore 14
 120              		.cfi_restore 4
 121              		.cfi_def_cfa_offset 0
 122              		.loc 1 16 0
 123 0022 FFF7FEBF 		b	right_motor_set_speed
 124              	.LVL4:
 125              	.L13:
 126              		.cfi_restore_state
 127 0026 FFF7FEFF 		bl	__stack_chk_fail
 128              	.LVL5:
 129              	.L15:
 130 002a 00BF     		.align	2
 131              	.L14:
 132 002c 00000000 		.word	__stack_chk_guard
 133 0030 A8FDFFFF 		.word	-600
 134              		.cfi_endproc
 135              	.LFE258:
 136              		.size	turn, .-turn
 137              		.section	.text.go_backward,"ax",%progbits
 138              		.align	1
 139              		.p2align 4,,15
 140              		.global	go_backward
 141              		.syntax unified
 142              		.thumb
 143              		.thumb_func
 144              		.fpu fpv4-sp-d16
 145              		.type	go_backward, %function
 146              	go_backward:
 147              	.LFB259:
 148              		.loc 1 19 0
 149              		.cfi_startproc
 150              		@ args = 0, pretend = 0, frame = 8
 151              		@ frame_needed = 0, uses_anonymous_args = 0
 152 0000 10B5     		push	{r4, lr}
 153              		.cfi_def_cfa_offset 8
 154              		.cfi_offset 4, -8
 155              		.cfi_offset 14, -4
 156 0002 094C     		ldr	r4, .L21
 157              		.loc 1 20 0
 158 0004 0948     		ldr	r0, .L21+4
 159              		.loc 1 19 0
 160 0006 2368     		ldr	r3, [r4]
 161 0008 82B0     		sub	sp, sp, #8
 162              		.cfi_def_cfa_offset 16
 163              		.loc 1 19 0
 164 000a 0193     		str	r3, [sp, #4]
 165              		.loc 1 20 0
 166 000c FFF7FEFF 		bl	left_motor_set_speed
 167              	.LVL6:
 168              		.loc 1 21 0
 169 0010 019A     		ldr	r2, [sp, #4]
 170 0012 2368     		ldr	r3, [r4]
 171 0014 9A42     		cmp	r2, r3
ARM GAS  /var/folders/r3/l17pxy9j13749mq5h96642rc0000gn/T//ccSEnKqd.s 			page 4


 172 0016 05D1     		bne	.L20
 173 0018 0448     		ldr	r0, .L21+4
 174              		.loc 1 22 0
 175 001a 02B0     		add	sp, sp, #8
 176              		.cfi_remember_state
 177              		.cfi_def_cfa_offset 8
 178              		@ sp needed
 179 001c BDE81040 		pop	{r4, lr}
 180              		.cfi_restore 14
 181              		.cfi_restore 4
 182              		.cfi_def_cfa_offset 0
 183              		.loc 1 21 0
 184 0020 FFF7FEBF 		b	right_motor_set_speed
 185              	.LVL7:
 186              	.L20:
 187              		.cfi_restore_state
 188 0024 FFF7FEFF 		bl	__stack_chk_fail
 189              	.LVL8:
 190              	.L22:
 191              		.align	2
 192              	.L21:
 193 0028 00000000 		.word	__stack_chk_guard
 194 002c A8FDFFFF 		.word	-600
 195              		.cfi_endproc
 196              	.LFE259:
 197              		.size	go_backward, .-go_backward
 198              		.text
 199              	.Letext0:
 200              		.file 2 "/Applications/Eclipse_e-puck2.app/Contents/Eclipse_e-puck2/Tools/gcc-arm-none-eabi-7-2017
 201              		.file 3 "/Applications/Eclipse_e-puck2.app/Contents/Eclipse_e-puck2/Tools/gcc-arm-none-eabi-7-2017
 202              		.file 4 "/Applications/Eclipse_e-puck2.app/Contents/Eclipse_e-puck2/Tools/gcc-arm-none-eabi-7-2017
 203              		.file 5 "../projet/e-puck2_main-processor/ChibiOS//os/rt/ports/ARMCMx/compilers/GCC/chtypes.h"
 204              		.file 6 "../projet/e-puck2_main-processor/ChibiOS//os/rt/include/chsystypes.h"
 205              		.file 7 "../projet/e-puck2_main-processor/ChibiOS//os/rt/include/chschd.h"
 206              		.file 8 "../projet/e-puck2_main-processor/ChibiOS//os/ext/CMSIS/include/core_cm4.h"
 207              		.file 9 "../projet/e-puck2_main-processor/ChibiOS//os/ext/CMSIS/ST/system_stm32f4xx.h"
 208              		.file 10 "../projet/e-puck2_main-processor/ChibiOS//os/ext/CMSIS/ST/stm32f407xx.h"
 209              		.file 11 "../projet/e-puck2_main-processor/ChibiOS//os/rt/ports/ARMCMx/chcore.h"
 210              		.file 12 "../projet/e-puck2_main-processor/ChibiOS//os/rt/ports/ARMCMx/chcore_v7m.h"
 211              		.file 13 "../projet/e-puck2_main-processor/ChibiOS//os/rt/include/chdebug.h"
 212              		.file 14 "../projet/e-puck2_main-processor/ChibiOS//os/rt/include/chtm.h"
 213              		.file 15 "../projet/e-puck2_main-processor/ChibiOS//os/rt/include/chstats.h"
 214              		.file 16 "../projet/e-puck2_main-processor/ChibiOS//os/rt/include/chsem.h"
 215              		.file 17 "../projet/e-puck2_main-processor/ChibiOS//os/rt/include/chmtx.h"
 216              		.file 18 "../projet/e-puck2_main-processor/ChibiOS//os/rt/include/chregistry.h"
 217              		.file 19 "../projet/e-puck2_main-processor/ChibiOS//os/rt/include/chevents.h"
 218              		.file 20 "../projet/e-puck2_main-processor/ChibiOS//os/rt/include/chqueues.h"
 219              		.file 21 "../projet/e-puck2_main-processor/ChibiOS//os/hal/ports/STM32/STM32F4xx/stm32_dma.h"
 220              		.file 22 "../projet/e-puck2_main-processor/ChibiOS//os/hal/include/hal_ioblock.h"
 221              		.file 23 "../projet/e-puck2_main-processor/ChibiOS//os/hal/ports/STM32/LLD/GPIOv2/pal_lld.h"
 222              		.file 24 "../projet/e-puck2_main-processor/ChibiOS//os/hal/include/adc.h"
 223              		.file 25 "../projet/e-puck2_main-processor/ChibiOS//os/hal/ports/STM32/STM32F4xx/adc_lld.h"
 224              		.file 26 "../projet/e-puck2_main-processor/ChibiOS//os/hal/include/can.h"
 225              		.file 27 "../projet/e-puck2_main-processor/ChibiOS//os/hal/ports/STM32/LLD/can_lld.h"
 226              		.file 28 "../projet/e-puck2_main-processor/ChibiOS//os/hal/include/dac.h"
 227              		.file 29 "../projet/e-puck2_main-processor/ChibiOS//os/hal/ports/STM32/LLD/DACv1/dac_lld.h"
 228              		.file 30 "../projet/e-puck2_main-processor/ChibiOS//os/hal/include/ext.h"
ARM GAS  /var/folders/r3/l17pxy9j13749mq5h96642rc0000gn/T//ccSEnKqd.s 			page 5


 229              		.file 31 "../projet/e-puck2_main-processor/ChibiOS//os/hal/ports/STM32/LLD/ext_lld.h"
 230              		.file 32 "../projet/e-puck2_main-processor/ChibiOS//os/hal/include/gpt.h"
 231              		.file 33 "../projet/e-puck2_main-processor/ChibiOS//os/hal/ports/STM32/LLD/TIMv1/gpt_lld.h"
 232              		.file 34 "../projet/e-puck2_main-processor/ChibiOS//os/hal/ports/STM32/LLD/TIMv1/stm32_tim.h"
 233              		.file 35 "../projet/e-puck2_main-processor/ChibiOS//os/hal/include/i2c.h"
 234              		.file 36 "../projet/e-puck2_main-processor/ChibiOS//os/hal/ports/STM32/LLD/I2Cv1/i2c_lld.h"
 235              		.file 37 "../projet/e-puck2_main-processor/ChibiOS//os/hal/include/i2s.h"
 236              		.file 38 "../projet/e-puck2_main-processor/ChibiOS//os/hal/ports/STM32/LLD/SPIv1/i2s_lld.h"
 237              		.file 39 "../projet/e-puck2_main-processor/ChibiOS//os/hal/include/pwm.h"
 238              		.file 40 "../projet/e-puck2_main-processor/ChibiOS//os/hal/ports/STM32/LLD/TIMv1/pwm_lld.h"
 239              		.file 41 "../projet/e-puck2_main-processor/ChibiOS//os/hal/include/serial.h"
 240              		.file 42 "../projet/e-puck2_main-processor/ChibiOS//os/hal/ports/STM32/LLD/USARTv1/serial_lld.h"
 241              		.file 43 "../projet/e-puck2_main-processor/ChibiOS//os/hal/include/sdc.h"
 242              		.file 44 "../projet/e-puck2_main-processor/ChibiOS//os/hal/ports/STM32/LLD/sdc_lld.h"
 243              		.file 45 "../projet/e-puck2_main-processor/ChibiOS//os/hal/include/spi.h"
 244              		.file 46 "../projet/e-puck2_main-processor/ChibiOS//os/hal/ports/STM32/LLD/SPIv1/spi_lld.h"
 245              		.file 47 "../projet/e-puck2_main-processor/ChibiOS//os/hal/include/usb.h"
 246              		.file 48 "../projet/e-puck2_main-processor/ChibiOS//os/hal/ports/STM32/LLD/OTGv1/usb_lld.h"
 247              		.file 49 "../projet/e-puck2_main-processor/ChibiOS//os/hal/ports/STM32/LLD/OTGv1/stm32_otg.h"
 248              		.file 50 "../projet/e-puck2_main-processor/ChibiOS//os/hal/include/serial_usb.h"
 249              		.file 51 "../projet/e-puck2_main-processor/ChibiOS_ext/os/hal/include/../ports/STM32/STM32F4xx/dcm
 250              		.file 52 "/Applications/Eclipse_e-puck2.app/Contents/Eclipse_e-puck2/Tools/gcc-arm-none-eabi-7-201
 251              		.file 53 "/Applications/Eclipse_e-puck2.app/Contents/Eclipse_e-puck2/Tools/gcc-arm-none-eabi-7-201
 252              		.file 54 "/Applications/Eclipse_e-puck2.app/Contents/Eclipse_e-puck2/Tools/gcc-arm-none-eabi-7-201
 253              		.file 55 "../projet/e-puck2_main-processor/src/msgbus/messagebus.h"
 254              		.file 56 "/Applications/Eclipse_e-puck2.app/Contents/Eclipse_e-puck2/Tools/gcc-arm-none-eabi-7-201
 255              		.file 57 "/Applications/Eclipse_e-puck2.app/Contents/Eclipse_e-puck2/Tools/gcc-arm-none-eabi-7-201
 256              		.file 58 "../projet/e-puck2_main-processor/src/parameter/parameter.h"
 257              		.file 59 "./main.h"
 258              		.file 60 "../projet/e-puck2_main-processor/src/usbcfg.h"
 259              		.file 61 "../projet/e-puck2_main-processor/src/motors.h"