ARM GAS  /var/folders/r3/l17pxy9j13749mq5h96642rc0000gn/T//ccU6dhoo.s 			page 1


   1              		.cpu cortex-m4
   2              		.eabi_attribute 27, 1
   3              		.eabi_attribute 28, 1
   4              		.eabi_attribute 20, 1
   5              		.eabi_attribute 21, 1
   6              		.eabi_attribute 23, 3
   7              		.eabi_attribute 24, 1
   8              		.eabi_attribute 25, 1
   9              		.eabi_attribute 26, 1
  10              		.eabi_attribute 30, 2
  11              		.eabi_attribute 34, 1
  12              		.eabi_attribute 18, 4
  13              		.file	"optical_detection.c"
  14              		.text
  15              	.Ltext0:
  16              		.cfi_sections	.debug_frame
  17              		.section	.text.chprintf.constprop.0,"ax",%progbits
  18              		.align	1
  19              		.p2align 4,,15
  20              		.syntax unified
  21              		.thumb
  22              		.thumb_func
  23              		.fpu fpv4-sp-d16
  24              		.type	chprintf.constprop.0, %function
  25              	chprintf.constprop.0:
  26              	.LFB265:
  27              		.file 1 "../projet/e-puck2_main-processor/ChibiOS//os/hal/lib/streams/chprintf.h"
  28              		.loc 1 69 0
  29              		.cfi_startproc
  30              		@ args = 4, pretend = 12, frame = 8
  31              		@ frame_needed = 0, uses_anonymous_args = 1
  32              	.LVL0:
  33 0000 0EB4     		push	{r1, r2, r3}
  34              		.cfi_def_cfa_offset 12
  35              		.cfi_offset 1, -12
  36              		.cfi_offset 2, -8
  37              		.cfi_offset 3, -4
  38 0002 10B5     		push	{r4, lr}
  39              		.cfi_def_cfa_offset 20
  40              		.cfi_offset 4, -20
  41              		.cfi_offset 14, -16
  42 0004 0A4C     		ldr	r4, .L6
  43              		.loc 1 74 0
  44 0006 0B49     		ldr	r1, .L6+4
  45              		.loc 1 69 0
  46 0008 2368     		ldr	r3, [r4]
  47              		.loc 1 74 0
  48 000a 0B48     		ldr	r0, .L6+8
  49              	.LVL1:
  50              		.loc 1 69 0
  51 000c 83B0     		sub	sp, sp, #12
  52              		.cfi_def_cfa_offset 32
  53              		.loc 1 69 0
  54 000e 0193     		str	r3, [sp, #4]
  55              	.LVL2:
  56              		.loc 1 73 0
  57 0010 06AB     		add	r3, sp, #24
ARM GAS  /var/folders/r3/l17pxy9j13749mq5h96642rc0000gn/T//ccU6dhoo.s 			page 2


  58              		.loc 1 74 0
  59 0012 1A46     		mov	r2, r3
  60              		.loc 1 73 0
  61 0014 0093     		str	r3, [sp]
  62              		.loc 1 74 0
  63 0016 FFF7FEFF 		bl	chvprintf
  64              	.LVL3:
  65              		.loc 1 78 0
  66 001a 019A     		ldr	r2, [sp, #4]
  67 001c 2368     		ldr	r3, [r4]
  68 001e 9A42     		cmp	r2, r3
  69 0020 04D1     		bne	.L5
  70 0022 03B0     		add	sp, sp, #12
  71              		.cfi_remember_state
  72              		.cfi_def_cfa_offset 20
  73              		@ sp needed
  74 0024 BDE81040 		pop	{r4, lr}
  75              		.cfi_restore 14
  76              		.cfi_restore 4
  77              		.cfi_def_cfa_offset 12
  78 0028 03B0     		add	sp, sp, #12
  79              		.cfi_restore 3
  80              		.cfi_restore 2
  81              		.cfi_restore 1
  82              		.cfi_def_cfa_offset 0
  83 002a 7047     		bx	lr
  84              	.L5:
  85              		.cfi_restore_state
  86 002c FFF7FEFF 		bl	__stack_chk_fail
  87              	.LVL4:
  88              	.L7:
  89              		.align	2
  90              	.L6:
  91 0030 00000000 		.word	__stack_chk_guard
  92 0034 00000000 		.word	.LC0
  93 0038 00000000 		.word	SDU1
  94              		.cfi_endproc
  95              	.LFE265:
  96              		.size	chprintf.constprop.0, .-chprintf.constprop.0
  97              		.section	.text.CaptureImage,"ax",%progbits
  98              		.align	1
  99              		.p2align 4,,15
 100              		.syntax unified
 101              		.thumb
 102              		.thumb_func
 103              		.fpu fpv4-sp-d16
 104              		.type	CaptureImage, %function
 105              	CaptureImage:
 106              	.LFB258:
 107              		.file 2 "optical_detection.c"
 108              		.loc 2 112 0
 109              		.cfi_startproc
 110              		@ Volatile: function does not return.
 111              		@ args = 0, pretend = 0, frame = 8
 112              		@ frame_needed = 0, uses_anonymous_args = 0
 113              	.LVL5:
 114 0000 80B5     		push	{r7, lr}
ARM GAS  /var/folders/r3/l17pxy9j13749mq5h96642rc0000gn/T//ccU6dhoo.s 			page 3


 115              		.cfi_def_cfa_offset 8
 116              		.cfi_offset 7, -8
 117              		.cfi_offset 14, -4
 118              	.LBB52:
 119              	.LBB53:
 120              		.file 3 "../projet/e-puck2_main-processor/ChibiOS//os/rt/include/chregistry.h"
 121              		.loc 3 135 0
 122 0002 234C     		ldr	r4, .L14
 123              	.LBE53:
 124              	.LBE52:
 125              		.loc 2 112 0
 126 0004 234A     		ldr	r2, .L14+4
 127              	.LBB56:
 128              	.LBB54:
 129              		.loc 3 135 0
 130 0006 A369     		ldr	r3, [r4, #24]
 131 0008 2349     		ldr	r1, .L14+8
 132              	.LBE54:
 133              	.LBE56:
 134              		.loc 2 112 0
 135 000a 1668     		ldr	r6, [r2]
 136              	.LBB57:
 137              	.LBB55:
 138              		.loc 3 135 0
 139 000c 9961     		str	r1, [r3, #24]
 140              	.LBE55:
 141              	.LBE57:
 142              		.loc 2 112 0
 143 000e 86B0     		sub	sp, sp, #24
 144              		.cfi_def_cfa_offset 32
 145              		.loc 2 119 0
 146 0010 0223     		movs	r3, #2
 147 0012 2025     		movs	r5, #32
 148 0014 40F2DB12 		movw	r2, #475
 149 0018 0021     		movs	r1, #0
 150 001a 0093     		str	r3, [sp]
 151              		.loc 2 112 0
 152 001c 0596     		str	r6, [sp, #20]
 153              		.loc 2 119 0
 154 001e 4FF42073 		mov	r3, #640
 155 0022 CDE90155 		strd	r5, r5, [sp, #4]
 156 0026 3020     		movs	r0, #48
 157              	.LVL6:
 158 0028 1C4E     		ldr	r6, .L14+12
 159              	.LBB58:
 160              	.LBB59:
 161              	.LBB60:
 162              	.LBB61:
 163              		.file 4 "../projet/e-puck2_main-processor/ChibiOS//os/rt/include/chsys.h"
 164              		.loc 4 367 0
 165 002a 1D4F     		ldr	r7, .L14+16
 166              	.LBE61:
 167              	.LBE60:
 168              	.LBE59:
 169              	.LBE58:
 170              		.loc 2 119 0
 171 002c FFF7FEFF 		bl	po8030_advanced_config
ARM GAS  /var/folders/r3/l17pxy9j13749mq5h96642rc0000gn/T//ccU6dhoo.s 			page 4


 172              	.LVL7:
 173              		.loc 2 124 0
 174 0030 FFF7FEFF 		bl	dcmi_enable_double_buffering
 175              	.LVL8:
 176              		.loc 2 125 0
 177 0034 0020     		movs	r0, #0
 178 0036 FFF7FEFF 		bl	dcmi_set_capture_mode
 179              	.LVL9:
 180              	.LBB79:
 181              	.LBB76:
 182              	.LBB66:
 183              	.LBB67:
 184              		.file 5 "../projet/e-puck2_main-processor/ChibiOS//os/rt/include/chbsem.h"
 185              		.loc 5 271 0
 186 003a B046     		mov	r8, r6
 187              	.LBE67:
 188              	.LBE66:
 189              	.LBE76:
 190              	.LBE79:
 191              		.loc 2 126 0
 192 003c FFF7FEFF 		bl	dcmi_prepare
 193              	.LVL10:
 194 0040 13E0     		b	.L11
 195              	.LVL11:
 196              	.L9:
 197              	.LBB80:
 198              	.LBB77:
 199              		.loc 5 286 0
 200 0042 FFF7FEFF 		bl	chSchRescheduleS
 201              	.LVL12:
 202              	.LBB69:
 203              	.LBB65:
 204              		.loc 4 360 0
 205 0046 FFF7FEFF 		bl	_dbg_check_unlock
 206              	.LVL13:
 207              		.loc 4 361 0
 208 004a FFF7FEFF 		bl	_stats_stop_measure_crit_thd
 209              	.LVL14:
 210              		.loc 4 367 0
 211 004e 2368     		ldr	r3, [r4]
 212 0050 A342     		cmp	r3, r4
 213 0052 07D0     		beq	.L10
 214 0054 A269     		ldr	r2, [r4, #24]
 215 0056 9B68     		ldr	r3, [r3, #8]
 216 0058 9268     		ldr	r2, [r2, #8]
 217 005a 9A42     		cmp	r2, r3
 218 005c 02D2     		bcs	.L10
 219 005e 3846     		mov	r0, r7
 220 0060 FFF7FEFF 		bl	chSysHalt
 221              	.LVL15:
 222              	.L10:
 223              	.LBB62:
 224              	.LBB63:
 225              	.LBB64:
 226              		.file 6 "../projet/e-puck2_main-processor/ChibiOS//os/ext/CMSIS/include/core_cmFunc.h"
 227              		.loc 6 546 0
 228 0064 0023     		movs	r3, #0
ARM GAS  /var/folders/r3/l17pxy9j13749mq5h96642rc0000gn/T//ccU6dhoo.s 			page 5


 229              		.syntax unified
 230              	@ 546 "../projet/e-puck2_main-processor/ChibiOS//os/ext/CMSIS/include/core_cmFunc.h" 1
 231 0066 83F31188 		MSR basepri, r3
 232              	@ 0 "" 2
 233              	.LVL16:
 234              		.thumb
 235              		.syntax unified
 236              	.L11:
 237              	.LBE64:
 238              	.LBE63:
 239              	.LBE62:
 240              	.LBE65:
 241              	.LBE69:
 242              	.LBE77:
 243              	.LBE80:
 244              		.loc 2 130 0 discriminator 1
 245 006a FFF7FEFF 		bl	dcmi_capture_start
 246              	.LVL17:
 247              		.loc 2 132 0 discriminator 1
 248 006e FFF7FEFF 		bl	wait_image_ready
 249              	.LVL18:
 250              	.LBB81:
 251              	.LBB78:
 252              	.LBB70:
 253              	.LBB71:
 254              	.LBB72:
 255              	.LBB73:
 256              	.LBB74:
 257              		.loc 6 546 0 discriminator 1
 258              		.syntax unified
 259              	@ 546 "../projet/e-puck2_main-processor/ChibiOS//os/ext/CMSIS/include/core_cmFunc.h" 1
 260 0072 85F31188 		MSR basepri, r5
 261              	@ 0 "" 2
 262              	.LVL19:
 263              		.thumb
 264              		.syntax unified
 265              	.LBE74:
 266              	.LBE73:
 267              	.LBE72:
 268              		.loc 4 349 0 discriminator 1
 269 0076 FFF7FEFF 		bl	_stats_start_measure_crit_thd
 270              	.LVL20:
 271              		.loc 4 350 0 discriminator 1
 272 007a FFF7FEFF 		bl	_dbg_check_lock
 273              	.LVL21:
 274              	.LBE71:
 275              	.LBE70:
 276              	.LBB75:
 277              	.LBB68:
 278              		.loc 5 268 0 discriminator 1
 279 007e FFF7FEFF 		bl	chDbgCheckClassI
 280              	.LVL22:
 281              		.loc 5 270 0 discriminator 1
 282 0082 B368     		ldr	r3, [r6, #8]
 283 0084 002B     		cmp	r3, #0
 284 0086 DCDC     		bgt	.L9
 285              		.loc 5 271 0
ARM GAS  /var/folders/r3/l17pxy9j13749mq5h96642rc0000gn/T//ccU6dhoo.s 			page 6


 286 0088 4046     		mov	r0, r8
 287 008a FFF7FEFF 		bl	chSemSignalI
 288              	.LVL23:
 289 008e D8E7     		b	.L9
 290              	.L15:
 291              		.align	2
 292              	.L14:
 293 0090 00000000 		.word	ch
 294 0094 00000000 		.word	__stack_chk_guard
 295 0098 00000000 		.word	.LANCHOR0
 296 009c 00000000 		.word	.LANCHOR1
 297 00a0 00000000 		.word	.LANCHOR2
 298              	.LBE68:
 299              	.LBE75:
 300              	.LBE78:
 301              	.LBE81:
 302              		.cfi_endproc
 303              	.LFE258:
 304              		.size	CaptureImage, .-CaptureImage
 305              		.section	.text.extract_error_line_position,"ax",%progbits
 306              		.align	1
 307              		.p2align 4,,15
 308              		.global	extract_error_line_position
 309              		.syntax unified
 310              		.thumb
 311              		.thumb_func
 312              		.fpu fpv4-sp-d16
 313              		.type	extract_error_line_position, %function
 314              	extract_error_line_position:
 315              	.LFB257:
 316              		.loc 2 24 0
 317              		.cfi_startproc
 318              		@ args = 0, pretend = 0, frame = 8
 319              		@ frame_needed = 0, uses_anonymous_args = 0
 320              	.LVL24:
 321 0000 2DE9F043 		push	{r4, r5, r6, r7, r8, r9, lr}
 322              		.cfi_def_cfa_offset 28
 323              		.cfi_offset 4, -28
 324              		.cfi_offset 5, -24
 325              		.cfi_offset 6, -20
 326              		.cfi_offset 7, -16
 327              		.cfi_offset 8, -12
 328              		.cfi_offset 9, -8
 329              		.cfi_offset 14, -4
 330 0004 364D     		ldr	r5, .L49
 331 0006 83B0     		sub	sp, sp, #12
 332              		.cfi_def_cfa_offset 40
 333              		.loc 2 24 0
 334 0008 2B68     		ldr	r3, [r5]
 335 000a 0193     		str	r3, [sp, #4]
 336              	.LVL25:
 337 000c 00F27F24 		addw	r4, r0, #639
 338 0010 431E     		subs	r3, r0, #1
 339              		.loc 2 28 0
 340 0012 0022     		movs	r2, #0
 341              	.LVL26:
 342              	.L17:
ARM GAS  /var/folders/r3/l17pxy9j13749mq5h96642rc0000gn/T//ccU6dhoo.s 			page 7


 343              	.LBB82:
 344              		.loc 2 34 0 discriminator 3
 345 0014 13F8011F 		ldrb	r1, [r3, #1]!	@ zero_extendqisi2
 346              		.loc 2 33 0 discriminator 3
 347 0018 A342     		cmp	r3, r4
 348              		.loc 2 34 0 discriminator 3
 349 001a 0A44     		add	r2, r2, r1
 350              	.LVL27:
 351              		.loc 2 33 0 discriminator 3
 352 001c FAD1     		bne	.L17
 353              	.LBE82:
 354              		.loc 2 36 0
 355 001e 314B     		ldr	r3, .L49+4
 356 0020 314E     		ldr	r6, .L49+8
 357 0022 A3FB0232 		umull	r3, r2, r3, r2
 358              	.LVL28:
 359 0026 4FF0000C 		mov	ip, #0
 360 002a B6F800E0 		ldrh	lr, [r6]
 361 002e 520A     		lsrs	r2, r2, #9
 362              	.LVL29:
 363              		.loc 2 26 0
 364 0030 6446     		mov	r4, ip
 365              		.loc 2 42 0
 366 0032 40F27A27 		movw	r7, #634
 367              	.LVL30:
 368              	.L18:
 369              		.loc 2 46 0
 370 0036 015D     		ldrb	r1, [r0, r4]	@ zero_extendqisi2
 371 0038 631C     		adds	r3, r4, #1
 372 003a 9142     		cmp	r1, r2
 373 003c 9BB2     		uxth	r3, r3
 374 003e 14D9     		bls	.L19
 375              		.loc 2 46 0 is_stmt 0 discriminator 1
 376 0040 0119     		adds	r1, r0, r4
 377 0042 4979     		ldrb	r1, [r1, #5]	@ zero_extendqisi2
 378 0044 9142     		cmp	r1, r2
 379 0046 10D2     		bcs	.L19
 380              	.LVL31:
 381              		.loc 2 54 0 is_stmt 1
 382 0048 BB42     		cmp	r3, r7
 383 004a 00D8     		bhi	.L21
 384              		.loc 2 54 0 is_stmt 0 discriminator 1
 385 004c 8CB9     		cbnz	r4, .L46
 386              	.LVL32:
 387              	.L21:
 388              		.loc 2 93 0 is_stmt 1
 389 004e 274B     		ldr	r3, .L49+12
 390              		.loc 2 91 0
 391 0050 274A     		ldr	r2, .L49+16
 392              	.LVL33:
 393              		.loc 2 93 0
 394 0052 B3F90000 		ldrsh	r0, [r3]
 395              	.LVL34:
 396              		.loc 2 91 0
 397 0056 0023     		movs	r3, #0
 398 0058 1380     		strh	r3, [r2]	@ movhi
 399              		.loc 2 92 0
ARM GAS  /var/folders/r3/l17pxy9j13749mq5h96642rc0000gn/T//ccU6dhoo.s 			page 8


 400 005a 3380     		strh	r3, [r6]	@ movhi
 401              	.L29:
 402              		.loc 2 99 0
 403 005c 019A     		ldr	r2, [sp, #4]
 404 005e 2B68     		ldr	r3, [r5]
 405 0060 9A42     		cmp	r2, r3
 406 0062 39D1     		bne	.L47
 407 0064 03B0     		add	sp, sp, #12
 408              		.cfi_remember_state
 409              		.cfi_def_cfa_offset 28
 410              		@ sp needed
 411 0066 BDE8F083 		pop	{r4, r5, r6, r7, r8, r9, pc}
 412              	.LVL35:
 413              	.L19:
 414              		.cfi_restore_state
 415              		.loc 2 42 0 discriminator 1
 416 006a BB42     		cmp	r3, r7
 417 006c EFD8     		bhi	.L21
 418              	.LVL36:
 419              		.loc 2 83 0
 420 006e 1C46     		mov	r4, r3
 421 0070 E1E7     		b	.L18
 422              	.LVL37:
 423              	.L46:
 424 0072 03F1FF38 		add	r8, r3, #-1
 425 0076 1946     		mov	r1, r3
 426 0078 8044     		add	r8, r8, r0
 427              	.LVL38:
 428              	.L26:
 429              		.loc 2 60 0
 430 007a 18F8019F 		ldrb	r9, [r8, #1]!	@ zero_extendqisi2
 431 007e 9145     		cmp	r9, r2
 432 0080 8BB2     		uxth	r3, r1
 433 0082 10D9     		bls	.L23
 434              		.loc 2 60 0 is_stmt 0 discriminator 1
 435 0084 18F8059C 		ldrb	r9, [r8, #-5]	@ zero_extendqisi2
 436 0088 9145     		cmp	r9, r2
 437 008a 0CD2     		bcs	.L23
 438 008c 4FF0010C 		mov	ip, #1
 439              	.L24:
 440              		.loc 2 79 0 is_stmt 1
 441 0090 191B     		subs	r1, r3, r4
 442 0092 2729     		cmp	r1, #39
 443 0094 13DC     		bgt	.L27
 444              	.LVL39:
 445              		.loc 2 42 0
 446 0096 BB42     		cmp	r3, r7
 447 0098 D9D8     		bhi	.L21
 448 009a 4FF0010C 		mov	ip, #1
 449              		.loc 2 83 0
 450 009e 4FF0000E 		mov	lr, #0
 451 00a2 1C46     		mov	r4, r3
 452 00a4 C7E7     		b	.L18
 453              	.LVL40:
 454              	.L23:
 455 00a6 0133     		adds	r3, r3, #1
 456 00a8 9BB2     		uxth	r3, r3
ARM GAS  /var/folders/r3/l17pxy9j13749mq5h96642rc0000gn/T//ccU6dhoo.s 			page 9


 457              	.LVL41:
 458              		.loc 2 58 0
 459 00aa B3F5207F 		cmp	r3, #640
 460 00ae 01F10101 		add	r1, r1, #1
 461 00b2 E2D1     		bne	.L26
 462              		.loc 2 68 0 discriminator 1
 463 00b4 BEF1000F 		cmp	lr, #0
 464 00b8 C9D0     		beq	.L21
 465 00ba 7346     		mov	r3, lr
 466              	.LVL42:
 467 00bc E8E7     		b	.L24
 468              	.LVL43:
 469              	.L27:
 470 00be BCF1000F 		cmp	ip, #0
 471 00c2 0BD1     		bne	.L48
 472              	.L28:
 473              		.loc 2 95 0
 474 00c4 1819     		adds	r0, r3, r4
 475              	.LVL44:
 476 00c6 4010     		asrs	r0, r0, #1
 477 00c8 A0F5A070 		sub	r0, r0, #320
 478 00cc 074A     		ldr	r2, .L49+12
 479              	.LVL45:
 480 00ce 084B     		ldr	r3, .L49+16
 481 00d0 00B2     		sxth	r0, r0
 482 00d2 1080     		strh	r0, [r2]	@ movhi
 483 00d4 1C80     		strh	r4, [r3]	@ movhi
 484              	.LVL46:
 485 00d6 C1E7     		b	.L29
 486              	.L47:
 487              		.loc 2 99 0
 488 00d8 FFF7FEFF 		bl	__stack_chk_fail
 489              	.LVL47:
 490              	.L48:
 491 00dc 3380     		strh	r3, [r6]	@ movhi
 492 00de F1E7     		b	.L28
 493              	.L50:
 494              		.align	2
 495              	.L49:
 496 00e0 00000000 		.word	__stack_chk_guard
 497 00e4 CDCCCCCC 		.word	-858993459
 498 00e8 00000000 		.word	.LANCHOR3
 499 00ec 00000000 		.word	.LANCHOR5
 500 00f0 00000000 		.word	.LANCHOR4
 501              		.cfi_endproc
 502              	.LFE257:
 503              		.size	extract_error_line_position, .-extract_error_line_position
 504              		.section	.text.ProcessImage,"ax",%progbits
 505              		.align	1
 506              		.p2align 4,,15
 507              		.syntax unified
 508              		.thumb
 509              		.thumb_func
 510              		.fpu fpv4-sp-d16
 511              		.type	ProcessImage, %function
 512              	ProcessImage:
 513              	.LFB259:
ARM GAS  /var/folders/r3/l17pxy9j13749mq5h96642rc0000gn/T//ccU6dhoo.s 			page 10


 514              		.loc 2 141 0
 515              		.cfi_startproc
 516              		@ args = 0, pretend = 0, frame = 648
 517              		@ frame_needed = 0, uses_anonymous_args = 0
 518              	.LVL48:
 519 0000 2DE9F043 		push	{r4, r5, r6, r7, r8, r9, lr}
 520              		.cfi_def_cfa_offset 28
 521              		.cfi_offset 4, -28
 522              		.cfi_offset 5, -24
 523              		.cfi_offset 6, -20
 524              		.cfi_offset 7, -16
 525              		.cfi_offset 8, -12
 526              		.cfi_offset 9, -8
 527              		.cfi_offset 14, -4
 528              	.LBB83:
 529              	.LBB84:
 530              		.loc 3 135 0
 531 0004 1D4A     		ldr	r2, .L62
 532              	.LBE84:
 533              	.LBE83:
 534              		.loc 2 141 0
 535 0006 1E4B     		ldr	r3, .L62+4
 536              	.LBB86:
 537              	.LBB85:
 538              		.loc 3 135 0
 539 0008 9269     		ldr	r2, [r2, #24]
 540 000a 1E49     		ldr	r1, .L62+8
 541 000c 9161     		str	r1, [r2, #24]
 542              	.LBE85:
 543              	.LBE86:
 544              		.loc 2 141 0
 545 000e ADF5237D 		sub	sp, sp, #652
 546              		.cfi_def_cfa_offset 680
 547              		.loc 2 147 0
 548 0012 0DF10409 		add	r9, sp, #4
 549              		.loc 2 141 0
 550 0016 1B68     		ldr	r3, [r3]
 551 0018 A193     		str	r3, [sp, #644]
 552              		.loc 2 147 0
 553 001a 4846     		mov	r0, r9
 554              	.LVL49:
 555 001c 4FF42072 		mov	r2, #640
 556 0020 0021     		movs	r1, #0
 557 0022 FFF7FEFF 		bl	memset
 558              	.LVL50:
 559 0026 184D     		ldr	r5, .L62+12
 560              	.LBB87:
 561              	.LBB88:
 562              		.loc 5 143 0
 563 0028 DFF86880 		ldr	r8, .L62+24
 564              	.LBE88:
 565              	.LBE87:
 566              		.loc 2 173 0
 567 002c 174F     		ldr	r7, .L62+16
 568 002e 184E     		ldr	r6, .L62+20
 569              		.loc 2 149 0
 570 0030 0124     		movs	r4, #1
ARM GAS  /var/folders/r3/l17pxy9j13749mq5h96642rc0000gn/T//ccU6dhoo.s 			page 11


 571              	.LVL51:
 572              	.L54:
 573              	.LBB90:
 574              	.LBB89:
 575              		.loc 5 143 0
 576 0032 4046     		mov	r0, r8
 577 0034 FFF7FEFF 		bl	chSemWait
 578              	.LVL52:
 579              	.LBE89:
 580              	.LBE90:
 581              		.loc 2 155 0
 582 0038 FFF7FEFF 		bl	dcmi_get_last_image_ptr
 583              	.LVL53:
 584 003c 0023     		movs	r3, #0
 585              	.LVL54:
 586              	.L52:
 587              	.LBB91:
 588              		.loc 2 163 0 discriminator 3
 589 003e C25C     		ldrb	r2, [r0, r3]	@ zero_extendqisi2
 590 0040 C3F34E01 		ubfx	r1, r3, #1, #15
 591 0044 0233     		adds	r3, r3, #2
 592              	.LVL55:
 593 0046 22F00702 		bic	r2, r2, #7
 594              		.loc 2 158 0 discriminator 3
 595 004a B3F5A06F 		cmp	r3, #1280
 596              		.loc 2 163 0 discriminator 3
 597 004e 09F80120 		strb	r2, [r9, r1]
 598              		.loc 2 158 0 discriminator 3
 599 0052 F4D1     		bne	.L52
 600              	.LBE91:
 601              		.loc 2 166 0
 602 0054 64B9     		cbnz	r4, .L61
 603              	.LVL56:
 604              	.L53:
 605              		.loc 2 173 0
 606 0056 B5F90020 		ldrsh	r2, [r5]
 607 005a 3946     		mov	r1, r7
 608 005c 3046     		mov	r0, r6
 609 005e FFF7FEFF 		bl	chprintf.constprop.0
 610              	.LVL57:
 611              		.loc 2 174 0
 612 0062 4846     		mov	r0, r9
 613 0064 FFF7FEFF 		bl	extract_error_line_position
 614              	.LVL58:
 615              		.loc 2 172 0
 616 0068 84F00104 		eor	r4, r4, #1
 617              	.LVL59:
 618              		.loc 2 174 0
 619 006c 2880     		strh	r0, [r5]	@ movhi
 620              		.loc 2 153 0
 621 006e E0E7     		b	.L54
 622              	.LVL60:
 623              	.L61:
 624              	.LBB92:
 625              		.loc 2 168 0
 626 0070 4FF42071 		mov	r1, #640
 627 0074 4846     		mov	r0, r9
ARM GAS  /var/folders/r3/l17pxy9j13749mq5h96642rc0000gn/T//ccU6dhoo.s 			page 12


 628              	.LVL61:
 629 0076 FFF7FEFF 		bl	SendUint8ToComputer
 630              	.LVL62:
 631 007a ECE7     		b	.L53
 632              	.L63:
 633              		.align	2
 634              	.L62:
 635 007c 00000000 		.word	ch
 636 0080 00000000 		.word	__stack_chk_guard
 637 0084 00000000 		.word	.LANCHOR6
 638 0088 00000000 		.word	.LANCHOR5
 639 008c 00000000 		.word	.LC0
 640 0090 00000000 		.word	SDU1
 641 0094 00000000 		.word	.LANCHOR1
 642              	.LBE92:
 643              		.cfi_endproc
 644              	.LFE259:
 645              		.size	ProcessImage, .-ProcessImage
 646              		.section	.text.process_image_start,"ax",%progbits
 647              		.align	1
 648              		.p2align 4,,15
 649              		.global	process_image_start
 650              		.syntax unified
 651              		.thumb
 652              		.thumb_func
 653              		.fpu fpv4-sp-d16
 654              		.type	process_image_start, %function
 655              	process_image_start:
 656              	.LFB260:
 657              		.loc 2 179 0
 658              		.cfi_startproc
 659              		@ args = 0, pretend = 0, frame = 8
 660              		@ frame_needed = 0, uses_anonymous_args = 0
 661 0000 30B5     		push	{r4, r5, lr}
 662              		.cfi_def_cfa_offset 12
 663              		.cfi_offset 4, -12
 664              		.cfi_offset 5, -8
 665              		.cfi_offset 14, -4
 666 0002 0E4C     		ldr	r4, .L68
 667              		.loc 2 180 0
 668 0004 0E4B     		ldr	r3, .L68+4
 669              		.loc 2 179 0
 670 0006 2268     		ldr	r2, [r4]
 671              		.loc 2 180 0
 672 0008 0E48     		ldr	r0, .L68+8
 673              		.loc 2 179 0
 674 000a 85B0     		sub	sp, sp, #20
 675              		.cfi_def_cfa_offset 32
 676              		.loc 2 180 0
 677 000c 0025     		movs	r5, #0
 678              		.loc 2 179 0
 679 000e 0392     		str	r2, [sp, #12]
 680              		.loc 2 180 0
 681 0010 4FF4AF61 		mov	r1, #1400
 682 0014 4022     		movs	r2, #64
 683 0016 0095     		str	r5, [sp]
 684 0018 FFF7FEFF 		bl	chThdCreateStatic
ARM GAS  /var/folders/r3/l17pxy9j13749mq5h96642rc0000gn/T//ccU6dhoo.s 			page 13


 685              	.LVL63:
 686              		.loc 2 181 0
 687 001c 0A4B     		ldr	r3, .L68+12
 688 001e 0095     		str	r5, [sp]
 689 0020 4022     		movs	r2, #64
 690 0022 0A48     		ldr	r0, .L68+16
 691 0024 4FF41E71 		mov	r1, #632
 692 0028 FFF7FEFF 		bl	chThdCreateStatic
 693              	.LVL64:
 694              		.loc 2 182 0
 695 002c 039A     		ldr	r2, [sp, #12]
 696 002e 2368     		ldr	r3, [r4]
 697 0030 9A42     		cmp	r2, r3
 698 0032 01D1     		bne	.L67
 699 0034 05B0     		add	sp, sp, #20
 700              		.cfi_remember_state
 701              		.cfi_def_cfa_offset 12
 702              		@ sp needed
 703 0036 30BD     		pop	{r4, r5, pc}
 704              	.L67:
 705              		.cfi_restore_state
 706 0038 FFF7FEFF 		bl	__stack_chk_fail
 707              	.LVL65:
 708              	.L69:
 709              		.align	2
 710              	.L68:
 711 003c 00000000 		.word	__stack_chk_guard
 712 0040 00000000 		.word	ProcessImage
 713 0044 00000000 		.word	.LANCHOR7
 714 0048 00000000 		.word	CaptureImage
 715 004c 00000000 		.word	.LANCHOR8
 716              		.cfi_endproc
 717              	.LFE260:
 718              		.size	process_image_start, .-process_image_start
 719              		.section	.text.get_extract_error_line_position,"ax",%progbits
 720              		.align	1
 721              		.p2align 4,,15
 722              		.global	get_extract_error_line_position
 723              		.syntax unified
 724              		.thumb
 725              		.thumb_func
 726              		.fpu fpv4-sp-d16
 727              		.type	get_extract_error_line_position, %function
 728              	get_extract_error_line_position:
 729              	.LFB261:
 730              		.loc 2 185 0
 731              		.cfi_startproc
 732              		@ args = 0, pretend = 0, frame = 8
 733              		@ frame_needed = 0, uses_anonymous_args = 0
 734 0000 00B5     		push	{lr}
 735              		.cfi_def_cfa_offset 4
 736              		.cfi_offset 14, -4
 737 0002 084B     		ldr	r3, .L74
 738              		.loc 2 186 0
 739 0004 0849     		ldr	r1, .L74+4
 740              		.loc 2 185 0
 741 0006 1A68     		ldr	r2, [r3]
ARM GAS  /var/folders/r3/l17pxy9j13749mq5h96642rc0000gn/T//ccU6dhoo.s 			page 14


 742              		.loc 2 187 0
 743 0008 B1F90000 		ldrsh	r0, [r1]
 744              		.loc 2 185 0
 745 000c 83B0     		sub	sp, sp, #12
 746              		.cfi_def_cfa_offset 16
 747              		.loc 2 185 0
 748 000e 0192     		str	r2, [sp, #4]
 749              		.loc 2 187 0
 750 0010 019A     		ldr	r2, [sp, #4]
 751 0012 1B68     		ldr	r3, [r3]
 752 0014 9A42     		cmp	r2, r3
 753 0016 02D1     		bne	.L73
 754 0018 03B0     		add	sp, sp, #12
 755              		.cfi_remember_state
 756              		.cfi_def_cfa_offset 4
 757              		@ sp needed
 758 001a 5DF804FB 		ldr	pc, [sp], #4
 759              	.L73:
 760              		.cfi_restore_state
 761 001e FFF7FEFF 		bl	__stack_chk_fail
 762              	.LVL66:
 763              	.L75:
 764 0022 00BF     		.align	2
 765              	.L74:
 766 0024 00000000 		.word	__stack_chk_guard
 767 0028 00000000 		.word	.LANCHOR5
 768              		.cfi_endproc
 769              	.LFE261:
 770              		.size	get_extract_error_line_position, .-get_extract_error_line_position
 771              		.section	.text.get_begin,"ax",%progbits
 772              		.align	1
 773              		.p2align 4,,15
 774              		.global	get_begin
 775              		.syntax unified
 776              		.thumb
 777              		.thumb_func
 778              		.fpu fpv4-sp-d16
 779              		.type	get_begin, %function
 780              	get_begin:
 781              	.LFB262:
 782              		.loc 2 189 0
 783              		.cfi_startproc
 784              		@ args = 0, pretend = 0, frame = 8
 785              		@ frame_needed = 0, uses_anonymous_args = 0
 786 0000 00B5     		push	{lr}
 787              		.cfi_def_cfa_offset 4
 788              		.cfi_offset 14, -4
 789 0002 084B     		ldr	r3, .L80
 790              		.loc 2 190 0
 791 0004 0849     		ldr	r1, .L80+4
 792              		.loc 2 189 0
 793 0006 1A68     		ldr	r2, [r3]
 794              		.loc 2 192 0
 795 0008 B1F90000 		ldrsh	r0, [r1]
 796              		.loc 2 189 0
 797 000c 83B0     		sub	sp, sp, #12
 798              		.cfi_def_cfa_offset 16
ARM GAS  /var/folders/r3/l17pxy9j13749mq5h96642rc0000gn/T//ccU6dhoo.s 			page 15


 799              		.loc 2 189 0
 800 000e 0192     		str	r2, [sp, #4]
 801              		.loc 2 192 0
 802 0010 019A     		ldr	r2, [sp, #4]
 803 0012 1B68     		ldr	r3, [r3]
 804 0014 9A42     		cmp	r2, r3
 805 0016 02D1     		bne	.L79
 806 0018 03B0     		add	sp, sp, #12
 807              		.cfi_remember_state
 808              		.cfi_def_cfa_offset 4
 809              		@ sp needed
 810 001a 5DF804FB 		ldr	pc, [sp], #4
 811              	.L79:
 812              		.cfi_restore_state
 813 001e FFF7FEFF 		bl	__stack_chk_fail
 814              	.LVL67:
 815              	.L81:
 816 0022 00BF     		.align	2
 817              	.L80:
 818 0024 00000000 		.word	__stack_chk_guard
 819 0028 00000000 		.word	.LANCHOR4
 820              		.cfi_endproc
 821              	.LFE262:
 822              		.size	get_begin, .-get_begin
 823              		.section	.text.get_end,"ax",%progbits
 824              		.align	1
 825              		.p2align 4,,15
 826              		.global	get_end
 827              		.syntax unified
 828              		.thumb
 829              		.thumb_func
 830              		.fpu fpv4-sp-d16
 831              		.type	get_end, %function
 832              	get_end:
 833              	.LFB263:
 834              		.loc 2 192 0
 835              		.cfi_startproc
 836              		@ args = 0, pretend = 0, frame = 8
 837              		@ frame_needed = 0, uses_anonymous_args = 0
 838 0000 00B5     		push	{lr}
 839              		.cfi_def_cfa_offset 4
 840              		.cfi_offset 14, -4
 841 0002 084B     		ldr	r3, .L86
 842              		.loc 2 193 0
 843 0004 0849     		ldr	r1, .L86+4
 844              		.loc 2 192 0
 845 0006 1A68     		ldr	r2, [r3]
 846              		.loc 2 194 0
 847 0008 B1F90000 		ldrsh	r0, [r1]
 848              		.loc 2 192 0
 849 000c 83B0     		sub	sp, sp, #12
 850              		.cfi_def_cfa_offset 16
 851              		.loc 2 192 0
 852 000e 0192     		str	r2, [sp, #4]
 853              		.loc 2 194 0
 854 0010 019A     		ldr	r2, [sp, #4]
 855 0012 1B68     		ldr	r3, [r3]
ARM GAS  /var/folders/r3/l17pxy9j13749mq5h96642rc0000gn/T//ccU6dhoo.s 			page 16


 856 0014 9A42     		cmp	r2, r3
 857 0016 02D1     		bne	.L85
 858 0018 03B0     		add	sp, sp, #12
 859              		.cfi_remember_state
 860              		.cfi_def_cfa_offset 4
 861              		@ sp needed
 862 001a 5DF804FB 		ldr	pc, [sp], #4
 863              	.L85:
 864              		.cfi_restore_state
 865 001e FFF7FEFF 		bl	__stack_chk_fail
 866              	.LVL68:
 867              	.L87:
 868 0022 00BF     		.align	2
 869              	.L86:
 870 0024 00000000 		.word	__stack_chk_guard
 871 0028 00000000 		.word	.LANCHOR3
 872              		.cfi_endproc
 873              	.LFE263:
 874              		.size	get_end, .-get_end
 875              		.section	.bss.begin,"aw",%nobits
 876              		.align	1
 877              		.set	.LANCHOR4,. + 0
 878              		.type	begin, %object
 879              		.size	begin, 2
 880              	begin:
 881 0000 0000     		.space	2
 882              		.section	.bss.end,"aw",%nobits
 883              		.align	1
 884              		.set	.LANCHOR3,. + 0
 885              		.type	end, %object
 886              		.size	end, 2
 887              	end:
 888 0000 0000     		.space	2
 889              		.section	.bss.last_err_pos,"aw",%nobits
 890              		.align	1
 891              		.set	.LANCHOR5,. + 0
 892              		.type	last_err_pos, %object
 893              		.size	last_err_pos, 2
 894              	last_err_pos:
 895 0000 0000     		.space	2
 896              		.section	.bss.waCaptureImage,"aw",%nobits
 897              		.align	3
 898              		.set	.LANCHOR8,. + 0
 899              		.type	waCaptureImage, %object
 900              		.size	waCaptureImage, 632
 901              	waCaptureImage:
 902 0000 00000000 		.space	632
 902      00000000 
 902      00000000 
 902      00000000 
 902      00000000 
 903              		.section	.bss.waProcessImage,"aw",%nobits
 904              		.align	3
 905              		.set	.LANCHOR7,. + 0
 906              		.type	waProcessImage, %object
 907              		.size	waProcessImage, 1400
 908              	waProcessImage:
ARM GAS  /var/folders/r3/l17pxy9j13749mq5h96642rc0000gn/T//ccU6dhoo.s 			page 17


 909 0000 00000000 		.space	1400
 909      00000000 
 909      00000000 
 909      00000000 
 909      00000000 
 910              		.section	.data.image_ready_sem,"aw",%progbits
 911              		.align	2
 912              		.set	.LANCHOR1,. + 0
 913              		.type	image_ready_sem, %object
 914              		.size	image_ready_sem, 12
 915              	image_ready_sem:
 916 0000 00000000 		.word	image_ready_sem
 917 0004 00000000 		.word	image_ready_sem
 918 0008 00000000 		.word	0
 919              		.section	.rodata.__FUNCTION__.11349,"a",%progbits
 920              		.align	2
 921              		.set	.LANCHOR0,. + 0
 922              		.type	__FUNCTION__.11349, %object
 923              		.size	__FUNCTION__.11349, 13
 924              	__FUNCTION__.11349:
 925 0000 43617074 		.ascii	"CaptureImage\000"
 925      75726549 
 925      6D616765 
 925      00
 926              		.section	.rodata.__FUNCTION__.11355,"a",%progbits
 927              		.align	2
 928              		.set	.LANCHOR6,. + 0
 929              		.type	__FUNCTION__.11355, %object
 930              		.size	__FUNCTION__.11355, 13
 931              	__FUNCTION__.11355:
 932 0000 50726F63 		.ascii	"ProcessImage\000"
 932      65737349 
 932      6D616765 
 932      00
 933              		.section	.rodata.__func__.7153,"a",%progbits
 934              		.align	2
 935              		.set	.LANCHOR2,. + 0
 936              		.type	__func__.7153, %object
 937              		.size	__func__.7153, 12
 938              	__func__.7153:
 939 0000 63685379 		.ascii	"chSysUnlock\000"
 939      73556E6C 
 939      6F636B00 
 940              		.section	.rodata.chprintf.constprop.0.str1.4,"aMS",%progbits,1
 941              		.align	2
 942              	.LC0:
 943 0000 200A2061 		.ascii	" \012 angle : %d\000"
 943      6E676C65 
 943      203A2025 
 943      6400
 944              		.text
 945              	.Letext0:
 946              		.file 7 "/Applications/Eclipse_e-puck2.app/Contents/Eclipse_e-puck2/Tools/gcc-arm-none-eabi-7-2017
 947              		.file 8 "/Applications/Eclipse_e-puck2.app/Contents/Eclipse_e-puck2/Tools/gcc-arm-none-eabi-7-2017
 948              		.file 9 "/Applications/Eclipse_e-puck2.app/Contents/Eclipse_e-puck2/Tools/gcc-arm-none-eabi-7-2017
 949              		.file 10 "../projet/e-puck2_main-processor/ChibiOS//os/rt/ports/ARMCMx/compilers/GCC/chtypes.h"
 950              		.file 11 "../projet/e-puck2_main-processor/ChibiOS//os/rt/include/chsystypes.h"
ARM GAS  /var/folders/r3/l17pxy9j13749mq5h96642rc0000gn/T//ccU6dhoo.s 			page 18


 951              		.file 12 "../projet/e-puck2_main-processor/ChibiOS//os/rt/include/chschd.h"
 952              		.file 13 "../projet/e-puck2_main-processor/ChibiOS//os/ext/CMSIS/include/core_cm4.h"
 953              		.file 14 "../projet/e-puck2_main-processor/ChibiOS//os/ext/CMSIS/ST/system_stm32f4xx.h"
 954              		.file 15 "../projet/e-puck2_main-processor/ChibiOS//os/ext/CMSIS/ST/stm32f407xx.h"
 955              		.file 16 "../projet/e-puck2_main-processor/ChibiOS//os/rt/ports/ARMCMx/chcore.h"
 956              		.file 17 "../projet/e-puck2_main-processor/ChibiOS//os/rt/ports/ARMCMx/chcore_v7m.h"
 957              		.file 18 "../projet/e-puck2_main-processor/ChibiOS//os/rt/include/chdebug.h"
 958              		.file 19 "../projet/e-puck2_main-processor/ChibiOS//os/rt/include/chtm.h"
 959              		.file 20 "../projet/e-puck2_main-processor/ChibiOS//os/rt/include/chstats.h"
 960              		.file 21 "../projet/e-puck2_main-processor/ChibiOS//os/rt/include/chsem.h"
 961              		.file 22 "../projet/e-puck2_main-processor/ChibiOS//os/rt/include/chmtx.h"
 962              		.file 23 "../projet/e-puck2_main-processor/ChibiOS//os/rt/include/chevents.h"
 963              		.file 24 "../projet/e-puck2_main-processor/ChibiOS//os/rt/include/chqueues.h"
 964              		.file 25 "../projet/e-puck2_main-processor/ChibiOS//os/rt/include/chstreams.h"
 965              		.file 26 "../projet/e-puck2_main-processor/ChibiOS//os/hal/ports/STM32/STM32F4xx/stm32_dma.h"
 966              		.file 27 "../projet/e-puck2_main-processor/ChibiOS//os/hal/include/hal_ioblock.h"
 967              		.file 28 "../projet/e-puck2_main-processor/ChibiOS//os/hal/ports/STM32/LLD/GPIOv2/pal_lld.h"
 968              		.file 29 "../projet/e-puck2_main-processor/ChibiOS//os/hal/include/adc.h"
 969              		.file 30 "../projet/e-puck2_main-processor/ChibiOS//os/hal/ports/STM32/STM32F4xx/adc_lld.h"
 970              		.file 31 "../projet/e-puck2_main-processor/ChibiOS//os/hal/include/can.h"
 971              		.file 32 "../projet/e-puck2_main-processor/ChibiOS//os/hal/ports/STM32/LLD/can_lld.h"
 972              		.file 33 "../projet/e-puck2_main-processor/ChibiOS//os/hal/include/dac.h"
 973              		.file 34 "../projet/e-puck2_main-processor/ChibiOS//os/hal/ports/STM32/LLD/DACv1/dac_lld.h"
 974              		.file 35 "../projet/e-puck2_main-processor/ChibiOS//os/hal/include/ext.h"
 975              		.file 36 "../projet/e-puck2_main-processor/ChibiOS//os/hal/ports/STM32/LLD/ext_lld.h"
 976              		.file 37 "../projet/e-puck2_main-processor/ChibiOS//os/hal/include/gpt.h"
 977              		.file 38 "../projet/e-puck2_main-processor/ChibiOS//os/hal/ports/STM32/LLD/TIMv1/gpt_lld.h"
 978              		.file 39 "../projet/e-puck2_main-processor/ChibiOS//os/hal/ports/STM32/LLD/TIMv1/stm32_tim.h"
 979              		.file 40 "../projet/e-puck2_main-processor/ChibiOS//os/hal/include/i2c.h"
 980              		.file 41 "../projet/e-puck2_main-processor/ChibiOS//os/hal/ports/STM32/LLD/I2Cv1/i2c_lld.h"
 981              		.file 42 "../projet/e-puck2_main-processor/ChibiOS//os/hal/include/i2s.h"
 982              		.file 43 "../projet/e-puck2_main-processor/ChibiOS//os/hal/ports/STM32/LLD/SPIv1/i2s_lld.h"
 983              		.file 44 "../projet/e-puck2_main-processor/ChibiOS//os/hal/include/pwm.h"
 984              		.file 45 "../projet/e-puck2_main-processor/ChibiOS//os/hal/ports/STM32/LLD/TIMv1/pwm_lld.h"
 985              		.file 46 "../projet/e-puck2_main-processor/ChibiOS//os/hal/include/serial.h"
 986              		.file 47 "../projet/e-puck2_main-processor/ChibiOS//os/hal/ports/STM32/LLD/USARTv1/serial_lld.h"
 987              		.file 48 "../projet/e-puck2_main-processor/ChibiOS//os/hal/include/sdc.h"
 988              		.file 49 "../projet/e-puck2_main-processor/ChibiOS//os/hal/ports/STM32/LLD/sdc_lld.h"
 989              		.file 50 "../projet/e-puck2_main-processor/ChibiOS//os/hal/include/spi.h"
 990              		.file 51 "../projet/e-puck2_main-processor/ChibiOS//os/hal/ports/STM32/LLD/SPIv1/spi_lld.h"
 991              		.file 52 "../projet/e-puck2_main-processor/ChibiOS//os/hal/include/usb.h"
 992              		.file 53 "../projet/e-puck2_main-processor/ChibiOS//os/hal/ports/STM32/LLD/OTGv1/usb_lld.h"
 993              		.file 54 "../projet/e-puck2_main-processor/ChibiOS//os/hal/ports/STM32/LLD/OTGv1/stm32_otg.h"
 994              		.file 55 "../projet/e-puck2_main-processor/ChibiOS//os/hal/include/serial_usb.h"
 995              		.file 56 "../projet/e-puck2_main-processor/ChibiOS_ext/os/hal/include/../ports/STM32/STM32F4xx/dcm
 996              		.file 57 "../projet/e-puck2_main-processor/src/camera/po8030.h"
 997              		.file 58 "../projet/e-puck2_main-processor/src/camera/dcmi_camera.h"
 998              		.file 59 "/Applications/Eclipse_e-puck2.app/Contents/Eclipse_e-puck2/Tools/gcc-arm-none-eabi-7-201
 999              		.file 60 "/Applications/Eclipse_e-puck2.app/Contents/Eclipse_e-puck2/Tools/gcc-arm-none-eabi-7-201
 1000              		.file 61 "<built-in>"
 1001              		.file 62 "/Applications/Eclipse_e-puck2.app/Contents/Eclipse_e-puck2/Tools/gcc-arm-none-eabi-7-201
 1002              		.file 63 "../projet/e-puck2_main-processor/src/msgbus/messagebus.h"
 1003              		.file 64 "/Applications/Eclipse_e-puck2.app/Contents/Eclipse_e-puck2/Tools/gcc-arm-none-eabi-7-201
 1004              		.file 65 "/Applications/Eclipse_e-puck2.app/Contents/Eclipse_e-puck2/Tools/gcc-arm-none-eabi-7-201
 1005              		.file 66 "../projet/e-puck2_main-processor/src/parameter/parameter.h"
 1006              		.file 67 "./main.h"
 1007              		.file 68 "../projet/e-puck2_main-processor/src/usbcfg.h"
ARM GAS  /var/folders/r3/l17pxy9j13749mq5h96642rc0000gn/T//ccU6dhoo.s 			page 19


 1008              		.file 69 "/Applications/Eclipse_e-puck2.app/Contents/Eclipse_e-puck2/Tools/gcc-arm-none-eabi-7-201
 1009              		.file 70 "../projet/e-puck2_main-processor/ChibiOS//os/rt/include/chthreads.h"