ARM GAS  /var/folders/r3/l17pxy9j13749mq5h96642rc0000gn/T//ccpnCvVG.s 			page 1


   1              		.cpu cortex-m4
   2              		.eabi_attribute 27, 1
   3              		.eabi_attribute 28, 1
   4              		.eabi_attribute 20, 1
   5              		.eabi_attribute 21, 1
   6              		.eabi_attribute 23, 3
   7              		.eabi_attribute 24, 1
   8              		.eabi_attribute 25, 1
   9              		.eabi_attribute 26, 1
  10              		.eabi_attribute 30, 2
  11              		.eabi_attribute 34, 1
  12              		.eabi_attribute 18, 4
  13              		.file	"pi_regulato.c"
  14              		.text
  15              	.Ltext0:
  16              		.cfi_sections	.debug_frame
  17              		.section	.text.delay,"ax",%progbits
  18              		.align	1
  19              		.p2align 4,,15
  20              		.global	delay
  21              		.syntax unified
  22              		.thumb
  23              		.thumb_func
  24              		.fpu fpv4-sp-d16
  25              		.type	delay, %function
  26              	delay:
  27              	.LFB260:
  28              		.file 1 "pi_regulato.c"
  29              		.loc 1 16 0
  30              		.cfi_startproc
  31              		@ args = 0, pretend = 0, frame = 8
  32              		@ frame_needed = 0, uses_anonymous_args = 0
  33              	.LVL0:
  34 0000 00B5     		push	{lr}
  35              		.cfi_def_cfa_offset 4
  36              		.cfi_offset 14, -4
  37 0002 094A     		ldr	r2, .L12
  38 0004 83B0     		sub	sp, sp, #12
  39              		.cfi_def_cfa_offset 16
  40              		.loc 1 16 0
  41 0006 1368     		ldr	r3, [r2]
  42 0008 0193     		str	r3, [sp, #4]
  43              	.LVL1:
  44              		.loc 1 17 0
  45 000a 20B1     		cbz	r0, .L1
  46 000c 431E     		subs	r3, r0, #1
  47              	.LVL2:
  48              	.L3:
  49              		.loc 1 18 0
  50              		.syntax unified
  51              	@ 18 "pi_regulato.c" 1
  52 000e 00BF     		nop
  53              	@ 0 "" 2
  54              		.loc 1 17 0
  55              		.thumb
  56              		.syntax unified
  57 0010 13F1FF33 		adds	r3, r3, #-1
ARM GAS  /var/folders/r3/l17pxy9j13749mq5h96642rc0000gn/T//ccpnCvVG.s 			page 2


  58              	.LVL3:
  59 0014 FBD2     		bcs	.L3
  60              	.LVL4:
  61              	.L1:
  62              		.loc 1 20 0
  63 0016 0199     		ldr	r1, [sp, #4]
  64 0018 1368     		ldr	r3, [r2]
  65 001a 9942     		cmp	r1, r3
  66 001c 02D1     		bne	.L11
  67 001e 03B0     		add	sp, sp, #12
  68              		.cfi_remember_state
  69              		.cfi_def_cfa_offset 4
  70              		@ sp needed
  71 0020 5DF804FB 		ldr	pc, [sp], #4
  72              	.L11:
  73              		.cfi_restore_state
  74 0024 FFF7FEFF 		bl	__stack_chk_fail
  75              	.LVL5:
  76              	.L13:
  77              		.align	2
  78              	.L12:
  79 0028 00000000 		.word	__stack_chk_guard
  80              		.cfi_endproc
  81              	.LFE260:
  82              		.size	delay, .-delay
  83              		.section	.text.line_found,"ax",%progbits
  84              		.align	1
  85              		.p2align 4,,15
  86              		.global	line_found
  87              		.syntax unified
  88              		.thumb
  89              		.thumb_func
  90              		.fpu fpv4-sp-d16
  91              		.type	line_found, %function
  92              	line_found:
  93              	.LFB261:
  94              		.loc 1 22 0
  95              		.cfi_startproc
  96              		@ args = 0, pretend = 0, frame = 8
  97              		@ frame_needed = 0, uses_anonymous_args = 0
  98 0000 70B5     		push	{r4, r5, r6, lr}
  99              		.cfi_def_cfa_offset 16
 100              		.cfi_offset 4, -16
 101              		.cfi_offset 5, -12
 102              		.cfi_offset 6, -8
 103              		.cfi_offset 14, -4
 104 0002 0C4E     		ldr	r6, .L23
 105 0004 82B0     		sub	sp, sp, #8
 106              		.cfi_def_cfa_offset 24
 107              		.loc 1 22 0
 108 0006 3368     		ldr	r3, [r6]
 109 0008 0193     		str	r3, [sp, #4]
 110              	.LVL6:
 111 000a 0A24     		movs	r4, #10
 112              		.loc 1 23 0
 113 000c 0025     		movs	r5, #0
 114              	.LVL7:
ARM GAS  /var/folders/r3/l17pxy9j13749mq5h96642rc0000gn/T//ccpnCvVG.s 			page 3


 115              	.L16:
 116              	.LBB78:
 117              		.loc 1 25 0
 118 000e FFF7FEFF 		bl	get_line_found
 119              	.LVL8:
 120 0012 631E     		subs	r3, r4, #1
 121              		.loc 1 26 0
 122 0014 0028     		cmp	r0, #0
 123 0016 18BF     		it	ne
 124 0018 0125     		movne	r5, #1
 125              	.LVL9:
 126              		.loc 1 24 0
 127 001a 13F0FF04 		ands	r4, r3, #255
 128              	.LVL10:
 129 001e F6D1     		bne	.L16
 130              	.LBE78:
 131              		.loc 1 30 0
 132 0020 019A     		ldr	r2, [sp, #4]
 133 0022 3368     		ldr	r3, [r6]
 134              	.LVL11:
 135 0024 9A42     		cmp	r2, r3
 136 0026 2846     		mov	r0, r5
 137 0028 01D1     		bne	.L22
 138 002a 02B0     		add	sp, sp, #8
 139              		.cfi_remember_state
 140              		.cfi_def_cfa_offset 16
 141              		@ sp needed
 142 002c 70BD     		pop	{r4, r5, r6, pc}
 143              	.LVL12:
 144              	.L22:
 145              		.cfi_restore_state
 146 002e FFF7FEFF 		bl	__stack_chk_fail
 147              	.LVL13:
 148              	.L24:
 149 0032 00BF     		.align	2
 150              	.L23:
 151 0034 00000000 		.word	__stack_chk_guard
 152              		.cfi_endproc
 153              	.LFE261:
 154              		.size	line_found, .-line_found
 155              		.section	.text.corner_approch,"ax",%progbits
 156              		.align	1
 157              		.p2align 4,,15
 158              		.global	corner_approch
 159              		.syntax unified
 160              		.thumb
 161              		.thumb_func
 162              		.fpu fpv4-sp-d16
 163              		.type	corner_approch, %function
 164              	corner_approch:
 165              	.LFB262:
 166              		.loc 1 33 0
 167              		.cfi_startproc
 168              		@ args = 0, pretend = 0, frame = 8
 169              		@ frame_needed = 0, uses_anonymous_args = 0
 170 0000 30B5     		push	{r4, r5, lr}
 171              		.cfi_def_cfa_offset 12
ARM GAS  /var/folders/r3/l17pxy9j13749mq5h96642rc0000gn/T//ccpnCvVG.s 			page 4


 172              		.cfi_offset 4, -12
 173              		.cfi_offset 5, -8
 174              		.cfi_offset 14, -4
 175 0002 174D     		ldr	r5, .L32
 176 0004 83B0     		sub	sp, sp, #12
 177              		.cfi_def_cfa_offset 24
 178              		.loc 1 36 0
 179 0006 0020     		movs	r0, #0
 180              		.loc 1 33 0
 181 0008 2B68     		ldr	r3, [r5]
 182 000a 0193     		str	r3, [sp, #4]
 183              	.LVL14:
 184              		.loc 1 36 0
 185 000c FFF7FEFF 		bl	left_motor_set_pos
 186              	.LVL15:
 187              		.loc 1 37 0
 188 0010 0020     		movs	r0, #0
 189 0012 FFF7FEFF 		bl	right_motor_set_pos
 190              	.LVL16:
 191              	.L26:
 192              		.loc 1 40 0
 193 0016 4FF4C870 		mov	r0, #400
 194 001a FFF7FEFF 		bl	right_motor_set_speed
 195              	.LVL17:
 196              		.loc 1 41 0
 197 001e 4FF4C870 		mov	r0, #400
 198 0022 FFF7FEFF 		bl	left_motor_set_speed
 199              	.LVL18:
 200              		.loc 1 42 0
 201 0026 FFF7FEFF 		bl	left_motor_get_pos
 202              	.LVL19:
 203 002a 0446     		mov	r4, r0
 204 002c FFF7FEFF 		bl	right_motor_get_pos
 205              	.LVL20:
 206 0030 2044     		add	r0, r0, r4
 207              	.LVL21:
 208 0032 00EBD070 		add	r0, r0, r0, lsr #31
 209              		.loc 1 39 0
 210 0036 40F34F00 		sbfx	r0, r0, #1, #16
 211 003a B0F5677F 		cmp	r0, #924
 212 003e EADD     		ble	.L26
 213              		.loc 1 44 0
 214 0040 0020     		movs	r0, #0
 215 0042 FFF7FEFF 		bl	right_motor_set_speed
 216              	.LVL22:
 217              		.loc 1 45 0
 218 0046 019A     		ldr	r2, [sp, #4]
 219 0048 2B68     		ldr	r3, [r5]
 220 004a 9A42     		cmp	r2, r3
 221 004c 05D1     		bne	.L31
 222 004e 0020     		movs	r0, #0
 223              		.loc 1 46 0
 224 0050 03B0     		add	sp, sp, #12
 225              		.cfi_remember_state
 226              		.cfi_def_cfa_offset 12
 227              		@ sp needed
 228 0052 BDE83040 		pop	{r4, r5, lr}
ARM GAS  /var/folders/r3/l17pxy9j13749mq5h96642rc0000gn/T//ccpnCvVG.s 			page 5


 229              		.cfi_restore 14
 230              		.cfi_restore 5
 231              		.cfi_restore 4
 232              		.cfi_def_cfa_offset 0
 233              		.loc 1 45 0
 234 0056 FFF7FEBF 		b	left_motor_set_speed
 235              	.LVL23:
 236              	.L31:
 237              		.cfi_restore_state
 238 005a FFF7FEFF 		bl	__stack_chk_fail
 239              	.LVL24:
 240              	.L33:
 241 005e 00BF     		.align	2
 242              	.L32:
 243 0060 00000000 		.word	__stack_chk_guard
 244              		.cfi_endproc
 245              	.LFE262:
 246              		.size	corner_approch, .-corner_approch
 247              		.section	.text.motor_turn,"ax",%progbits
 248              		.align	1
 249              		.p2align 4,,15
 250              		.global	motor_turn
 251              		.syntax unified
 252              		.thumb
 253              		.thumb_func
 254              		.fpu fpv4-sp-d16
 255              		.type	motor_turn, %function
 256              	motor_turn:
 257              	.LFB263:
 258              		.loc 1 48 0
 259              		.cfi_startproc
 260              		@ args = 0, pretend = 0, frame = 8
 261              		@ frame_needed = 0, uses_anonymous_args = 0
 262              	.LVL25:
 263 0000 2DE9F041 		push	{r4, r5, r6, r7, r8, lr}
 264              		.cfi_def_cfa_offset 24
 265              		.cfi_offset 4, -24
 266              		.cfi_offset 5, -20
 267              		.cfi_offset 6, -16
 268              		.cfi_offset 7, -12
 269              		.cfi_offset 8, -8
 270              		.cfi_offset 14, -4
 271 0004 DFF86480 		ldr	r8, .L43
 272 0008 82B0     		sub	sp, sp, #8
 273              		.cfi_def_cfa_offset 32
 274              		.loc 1 48 0
 275 000a D8F80030 		ldr	r3, [r8]
 276 000e 0193     		str	r3, [sp, #4]
 277              	.LVL26:
 278 0010 0746     		mov	r7, r0
 279              		.loc 1 52 0
 280 0012 0020     		movs	r0, #0
 281              	.LVL27:
 282              		.loc 1 48 0
 283 0014 1546     		mov	r5, r2
 284 0016 0E46     		mov	r6, r1
 285              		.loc 1 52 0
ARM GAS  /var/folders/r3/l17pxy9j13749mq5h96642rc0000gn/T//ccpnCvVG.s 			page 6


 286 0018 FFF7FEFF 		bl	left_motor_set_pos
 287              	.LVL28:
 288              		.loc 1 53 0
 289 001c 0020     		movs	r0, #0
 290 001e FFF7FEFF 		bl	right_motor_set_pos
 291              	.LVL29:
 292              		.loc 1 55 0
 293 0022 002D     		cmp	r5, #0
 294 0024 02DC     		bgt	.L36
 295 0026 10E0     		b	.L35
 296              	.LVL30:
 297              	.L41:
 298              		.loc 1 55 0 is_stmt 0 discriminator 1
 299 0028 8542     		cmp	r5, r0
 300 002a 0EDD     		ble	.L35
 301              	.LVL31:
 302              	.L36:
 303              		.loc 1 57 0 is_stmt 1
 304 002c 3046     		mov	r0, r6
 305 002e FFF7FEFF 		bl	right_motor_set_speed
 306              	.LVL32:
 307              		.loc 1 58 0
 308 0032 3846     		mov	r0, r7
 309 0034 FFF7FEFF 		bl	left_motor_set_speed
 310              	.LVL33:
 311              		.loc 1 60 0
 312 0038 FFF7FEFF 		bl	left_motor_get_pos
 313              	.LVL34:
 314 003c 0446     		mov	r4, r0
 315              	.LVL35:
 316              		.loc 1 61 0
 317 003e FFF7FEFF 		bl	right_motor_get_pos
 318              	.LVL36:
 319              		.loc 1 55 0
 320 0042 24B2     		sxth	r4, r4
 321 0044 A542     		cmp	r5, r4
 322              		.loc 1 61 0
 323 0046 00B2     		sxth	r0, r0
 324              	.LVL37:
 325              		.loc 1 55 0
 326 0048 EEDC     		bgt	.L41
 327              	.LVL38:
 328              	.L35:
 329              		.loc 1 63 0
 330 004a 0020     		movs	r0, #0
 331 004c FFF7FEFF 		bl	right_motor_set_speed
 332              	.LVL39:
 333              		.loc 1 64 0
 334 0050 019A     		ldr	r2, [sp, #4]
 335 0052 D8F80030 		ldr	r3, [r8]
 336 0056 9A42     		cmp	r2, r3
 337 0058 05D1     		bne	.L42
 338 005a 0020     		movs	r0, #0
 339              		.loc 1 65 0
 340 005c 02B0     		add	sp, sp, #8
 341              		.cfi_remember_state
 342              		.cfi_def_cfa_offset 24
ARM GAS  /var/folders/r3/l17pxy9j13749mq5h96642rc0000gn/T//ccpnCvVG.s 			page 7


 343              		@ sp needed
 344 005e BDE8F041 		pop	{r4, r5, r6, r7, r8, lr}
 345              		.cfi_restore 14
 346              		.cfi_restore 8
 347              		.cfi_restore 7
 348              		.cfi_restore 6
 349              		.cfi_restore 5
 350              		.cfi_restore 4
 351              		.cfi_def_cfa_offset 0
 352              		.loc 1 64 0
 353 0062 FFF7FEBF 		b	left_motor_set_speed
 354              	.LVL40:
 355              	.L42:
 356              		.cfi_restore_state
 357 0066 FFF7FEFF 		bl	__stack_chk_fail
 358              	.LVL41:
 359              	.L44:
 360 006a 00BF     		.align	2
 361              	.L43:
 362 006c 00000000 		.word	__stack_chk_guard
 363              		.cfi_endproc
 364              	.LFE263:
 365              		.size	motor_turn, .-motor_turn
 366              		.section	.text.corner_turn.part.0,"ax",%progbits
 367              		.align	1
 368              		.p2align 4,,15
 369              		.syntax unified
 370              		.thumb
 371              		.thumb_func
 372              		.fpu fpv4-sp-d16
 373              		.type	corner_turn.part.0, %function
 374              	corner_turn.part.0:
 375              	.LFB270:
 376              		.loc 1 67 0
 377              		.cfi_startproc
 378              		@ args = 0, pretend = 0, frame = 8
 379              		@ frame_needed = 0, uses_anonymous_args = 0
 380 0000 00B5     		push	{lr}
 381              		.cfi_def_cfa_offset 4
 382              		.cfi_offset 14, -4
 383 0002 0A4B     		ldr	r3, .L50
 384 0004 83B0     		sub	sp, sp, #12
 385              		.cfi_def_cfa_offset 16
 386              		.loc 1 67 0
 387 0006 1A68     		ldr	r2, [r3]
 388 0008 0192     		str	r2, [sp, #4]
 389              	.LVL42:
 390              		.loc 1 73 0
 391 000a 019A     		ldr	r2, [sp, #4]
 392 000c 1B68     		ldr	r3, [r3]
 393 000e 9A42     		cmp	r2, r3
 394 0010 09D1     		bne	.L49
 395 0012 40F24512 		movw	r2, #325
 396 0016 6FF0C701 		mvn	r1, #199
 397 001a C820     		movs	r0, #200
 398              		.loc 1 93 0
 399 001c 03B0     		add	sp, sp, #12
ARM GAS  /var/folders/r3/l17pxy9j13749mq5h96642rc0000gn/T//ccpnCvVG.s 			page 8


 400              		.cfi_remember_state
 401              		.cfi_def_cfa_offset 4
 402              		@ sp needed
 403 001e 5DF804EB 		ldr	lr, [sp], #4
 404              		.cfi_restore 14
 405              		.cfi_def_cfa_offset 0
 406              		.loc 1 73 0
 407 0022 FFF7FEBF 		b	motor_turn
 408              	.LVL43:
 409              	.L49:
 410              		.cfi_restore_state
 411 0026 FFF7FEFF 		bl	__stack_chk_fail
 412              	.LVL44:
 413              	.L51:
 414 002a 00BF     		.align	2
 415              	.L50:
 416 002c 00000000 		.word	__stack_chk_guard
 417              		.cfi_endproc
 418              	.LFE270:
 419              		.size	corner_turn.part.0, .-corner_turn.part.0
 420              		.section	.text.corner_turn,"ax",%progbits
 421              		.align	1
 422              		.p2align 4,,15
 423              		.global	corner_turn
 424              		.syntax unified
 425              		.thumb
 426              		.thumb_func
 427              		.fpu fpv4-sp-d16
 428              		.type	corner_turn, %function
 429              	corner_turn:
 430              	.LFB264:
 431              		.loc 1 67 0
 432              		.cfi_startproc
 433              		@ args = 0, pretend = 0, frame = 8
 434              		@ frame_needed = 0, uses_anonymous_args = 0
 435              	.LVL45:
 436 0000 00B5     		push	{lr}
 437              		.cfi_def_cfa_offset 4
 438              		.cfi_offset 14, -4
 439 0002 294B     		ldr	r3, .L69
 440 0004 83B0     		sub	sp, sp, #12
 441              		.cfi_def_cfa_offset 16
 442              		.loc 1 67 0
 443 0006 1A68     		ldr	r2, [r3]
 444 0008 0192     		str	r2, [sp, #4]
 445              	.LVL46:
 446              		.loc 1 69 0
 447 000a 0428     		cmp	r0, #4
 448 000c 43D8     		bhi	.L52
 449 000e DFE800F0 		tbb	[pc, r0]
 450              	.L55:
 451 0012 0F       		.byte	(.L54-.L55)/2
 452 0013 18       		.byte	(.L56-.L55)/2
 453 0014 26       		.byte	(.L57-.L55)/2
 454 0015 34       		.byte	(.L58-.L55)/2
 455 0016 03       		.byte	(.L59-.L55)/2
 456 0017 00       		.p2align 1
ARM GAS  /var/folders/r3/l17pxy9j13749mq5h96642rc0000gn/T//ccpnCvVG.s 			page 9


 457              	.L59:
 458              		.loc 1 89 0
 459 0018 019A     		ldr	r2, [sp, #4]
 460 001a 1B68     		ldr	r3, [r3]
 461 001c 9A42     		cmp	r2, r3
 462 001e 41D1     		bne	.L68
 463 0020 0022     		movs	r2, #0
 464 0022 1146     		mov	r1, r2
 465 0024 1046     		mov	r0, r2
 466              	.LVL47:
 467              		.loc 1 93 0
 468 0026 03B0     		add	sp, sp, #12
 469              		.cfi_remember_state
 470              		.cfi_def_cfa_offset 4
 471              		@ sp needed
 472 0028 5DF804EB 		ldr	lr, [sp], #4
 473              		.cfi_restore 14
 474              		.cfi_def_cfa_offset 0
 475              		.loc 1 89 0
 476 002c FFF7FEBF 		b	motor_turn
 477              	.LVL48:
 478              	.L54:
 479              		.cfi_restore_state
 480 0030 019A     		ldr	r2, [sp, #4]
 481 0032 1B68     		ldr	r3, [r3]
 482 0034 9A42     		cmp	r2, r3
 483 0036 35D1     		bne	.L68
 484              		.loc 1 93 0
 485 0038 03B0     		add	sp, sp, #12
 486              		.cfi_remember_state
 487              		.cfi_def_cfa_offset 4
 488              		@ sp needed
 489 003a 5DF804EB 		ldr	lr, [sp], #4
 490              		.cfi_restore 14
 491              		.cfi_def_cfa_offset 0
 492 003e FFF7FEBF 		b	corner_turn.part.0
 493              	.LVL49:
 494              	.L56:
 495              		.cfi_restore_state
 496              		.loc 1 77 0
 497 0042 019A     		ldr	r2, [sp, #4]
 498 0044 1B68     		ldr	r3, [r3]
 499 0046 9A42     		cmp	r2, r3
 500 0048 2CD1     		bne	.L68
 501 004a 40F24512 		movw	r2, #325
 502 004e C821     		movs	r1, #200
 503 0050 6FF0C700 		mvn	r0, #199
 504              	.LVL50:
 505              		.loc 1 93 0
 506 0054 03B0     		add	sp, sp, #12
 507              		.cfi_remember_state
 508              		.cfi_def_cfa_offset 4
 509              		@ sp needed
 510 0056 5DF804EB 		ldr	lr, [sp], #4
 511              		.cfi_restore 14
 512              		.cfi_def_cfa_offset 0
 513              		.loc 1 89 0
ARM GAS  /var/folders/r3/l17pxy9j13749mq5h96642rc0000gn/T//ccpnCvVG.s 			page 10


 514 005a FFF7FEBF 		b	motor_turn
 515              	.LVL51:
 516              	.L57:
 517              		.cfi_restore_state
 518              		.loc 1 81 0
 519 005e 019A     		ldr	r2, [sp, #4]
 520 0060 1B68     		ldr	r3, [r3]
 521 0062 9A42     		cmp	r2, r3
 522 0064 1ED1     		bne	.L68
 523 0066 4FF4C871 		mov	r1, #400
 524 006a 0846     		mov	r0, r1
 525              	.LVL52:
 526 006c 4FF49672 		mov	r2, #300
 527              		.loc 1 93 0
 528 0070 03B0     		add	sp, sp, #12
 529              		.cfi_remember_state
 530              		.cfi_def_cfa_offset 4
 531              		@ sp needed
 532 0072 5DF804EB 		ldr	lr, [sp], #4
 533              		.cfi_restore 14
 534              		.cfi_def_cfa_offset 0
 535              		.loc 1 89 0
 536 0076 FFF7FEBF 		b	motor_turn
 537              	.LVL53:
 538              	.L58:
 539              		.cfi_restore_state
 540              		.loc 1 85 0
 541 007a 019A     		ldr	r2, [sp, #4]
 542 007c 1B68     		ldr	r3, [r3]
 543 007e 9A42     		cmp	r2, r3
 544 0080 10D1     		bne	.L68
 545 0082 4FF42572 		mov	r2, #660
 546 0086 6FF0C701 		mvn	r1, #199
 547 008a C820     		movs	r0, #200
 548              	.LVL54:
 549              		.loc 1 93 0
 550 008c 03B0     		add	sp, sp, #12
 551              		.cfi_remember_state
 552              		.cfi_def_cfa_offset 4
 553              		@ sp needed
 554 008e 5DF804EB 		ldr	lr, [sp], #4
 555              		.cfi_restore 14
 556              		.cfi_def_cfa_offset 0
 557              		.loc 1 89 0
 558 0092 FFF7FEBF 		b	motor_turn
 559              	.LVL55:
 560              	.L52:
 561              		.loc 1 93 0
 562 0096 019A     		ldr	r2, [sp, #4]
 563 0098 1B68     		ldr	r3, [r3]
 564 009a 9A42     		cmp	r2, r3
 565 009c 02D1     		bne	.L68
 566 009e 03B0     		add	sp, sp, #12
 567              		@ sp needed
 568 00a0 5DF804FB 		ldr	pc, [sp], #4
 569              	.LVL56:
 570              	.L68:
ARM GAS  /var/folders/r3/l17pxy9j13749mq5h96642rc0000gn/T//ccpnCvVG.s 			page 11


 571              		.cfi_restore_state
 572 00a4 FFF7FEFF 		bl	__stack_chk_fail
 573              	.LVL57:
 574              	.L70:
 575              		.align	2
 576              	.L69:
 577 00a8 00000000 		.word	__stack_chk_guard
 578              		.cfi_endproc
 579              	.LFE264:
 580              		.size	corner_turn, .-corner_turn
 581              		.section	.text.turn_choice,"ax",%progbits
 582              		.align	1
 583              		.p2align 4,,15
 584              		.global	turn_choice
 585              		.syntax unified
 586              		.thumb
 587              		.thumb_func
 588              		.fpu fpv4-sp-d16
 589              		.type	turn_choice, %function
 590              	turn_choice:
 591              	.LFB265:
 592              		.loc 1 96 0
 593              		.cfi_startproc
 594              		@ args = 0, pretend = 0, frame = 8
 595              		@ frame_needed = 0, uses_anonymous_args = 0
 596 0000 70B5     		push	{r4, r5, r6, lr}
 597              		.cfi_def_cfa_offset 16
 598              		.cfi_offset 4, -16
 599              		.cfi_offset 5, -12
 600              		.cfi_offset 6, -8
 601              		.cfi_offset 14, -4
 602 0002 2DED028B 		vpush.64	{d8}
 603              		.cfi_def_cfa_offset 24
 604              		.cfi_offset 80, -24
 605              		.cfi_offset 81, -20
 606 0006 764E     		ldr	r6, .L150
 607              		.loc 1 99 0
 608 0008 9FED768A 		vldr.32	s16, .L150+4
 609              		.loc 1 96 0
 610 000c 3368     		ldr	r3, [r6]
 611 000e 82B0     		sub	sp, sp, #8
 612              		.cfi_def_cfa_offset 32
 613              		.loc 1 96 0
 614 0010 0193     		str	r3, [sp, #4]
 615              		.loc 1 97 0
 616 0012 FFF7FEFF 		bl	get_angle
 617              	.LVL58:
 618 0016 F0EE408A 		vmov.f32	s17, s0
 619              	.LVL59:
 620              		.loc 1 99 0
 621 001a 04E0     		b	.L72
 622              	.LVL60:
 623              	.L73:
 624              	.LBB79:
 625              	.LBB80:
 626              		.loc 1 89 0
 627 001c 0022     		movs	r2, #0
ARM GAS  /var/folders/r3/l17pxy9j13749mq5h96642rc0000gn/T//ccpnCvVG.s 			page 12


 628 001e 1146     		mov	r1, r2
 629 0020 1046     		mov	r0, r2
 630 0022 FFF7FEFF 		bl	motor_turn
 631              	.LVL61:
 632              	.L72:
 633              	.LBE80:
 634              	.LBE79:
 635              		.loc 1 99 0
 636 0026 FFF7FEFF 		bl	get_amp
 637              	.LVL62:
 638 002a B4EEC80A 		vcmpe.f32	s0, s16
 639 002e F1EE10FA 		vmrs	APSR_nzcv, FPSCR
 640 0032 F3D4     		bmi	.L73
 641              		.loc 1 103 0
 642 0034 DFED6C7A 		vldr.32	s15, .L150+8
 643 0038 F4EEE78A 		vcmpe.f32	s17, s15
 644 003c F1EE10FA 		vmrs	APSR_nzcv, FPSCR
 645 0040 06DD     		ble	.L74
 646              		.loc 1 103 0 is_stmt 0 discriminator 1
 647 0042 DFED6A7A 		vldr.32	s15, .L150+12
 648 0046 F4EEE78A 		vcmpe.f32	s17, s15
 649 004a F1EE10FA 		vmrs	APSR_nzcv, FPSCR
 650 004e 73D4     		bmi	.L148
 651              	.L74:
 652              		.loc 1 111 0 is_stmt 1
 653 0050 DFED667A 		vldr.32	s15, .L150+12
 654 0054 F4EEE78A 		vcmpe.f32	s17, s15
 655 0058 F1EE10FA 		vmrs	APSR_nzcv, FPSCR
 656 005c 06DC     		bgt	.L87
 657              		.loc 1 111 0 is_stmt 0 discriminator 1
 658 005e DFED647A 		vldr.32	s15, .L150+16
 659 0062 F4EEE78A 		vcmpe.f32	s17, s15
 660 0066 F1EE10FA 		vmrs	APSR_nzcv, FPSCR
 661 006a 27D5     		bpl	.L140
 662              	.L87:
 663              	.LVL63:
 664              	.LBB81:
 665              	.LBB82:
 666              		.loc 1 85 0 is_stmt 1
 667 006c 4FF42572 		mov	r2, #660
 668 0070 6FF0C701 		mvn	r1, #199
 669 0074 C820     		movs	r0, #200
 670 0076 FFF7FEFF 		bl	motor_turn
 671              	.LVL64:
 672              	.LBE82:
 673              	.LBE81:
 674              		.loc 1 113 0
 675 007a 5E4A     		ldr	r2, .L150+20
 676 007c 5E4B     		ldr	r3, .L150+24
 677 007e 1268     		ldr	r2, [r2]
 678 0080 A3FB0232 		umull	r3, r2, r3, r2
 679 0084 9208     		lsrs	r2, r2, #2
 680              	.LVL65:
 681              	.LBB83:
 682              	.LBB84:
 683              		.loc 1 17 0
 684 0086 531E     		subs	r3, r2, #1
ARM GAS  /var/folders/r3/l17pxy9j13749mq5h96642rc0000gn/T//ccpnCvVG.s 			page 13


 685              	.LVL66:
 686 0088 1AB1     		cbz	r2, .L90
 687              	.LVL67:
 688              	.L91:
 689              		.loc 1 18 0
 690              		.syntax unified
 691              	@ 18 "pi_regulato.c" 1
 692 008a 00BF     		nop
 693              	@ 0 "" 2
 694              		.loc 1 17 0
 695              		.thumb
 696              		.syntax unified
 697 008c 13F1FF33 		adds	r3, r3, #-1
 698              	.LVL68:
 699 0090 FBD2     		bcs	.L91
 700              	.LVL69:
 701              	.L90:
 702              	.LBE84:
 703              	.LBE83:
 704              	.LBB85:
 705              	.LBB86:
 706              	.LBB87:
 707              		.loc 1 26 0
 708 0092 0A24     		movs	r4, #10
 709              	.LBE87:
 710              	.LBE86:
 711              	.LBE85:
 712              	.LBB90:
 713              	.LBB91:
 714              		.loc 1 23 0
 715 0094 0025     		movs	r5, #0
 716              	.L93:
 717              	.LVL70:
 718              	.LBB92:
 719              		.loc 1 25 0
 720 0096 FFF7FEFF 		bl	get_line_found
 721              	.LVL71:
 722 009a 631E     		subs	r3, r4, #1
 723              		.loc 1 26 0
 724 009c 0028     		cmp	r0, #0
 725 009e 18BF     		it	ne
 726 00a0 0125     		movne	r5, #1
 727              	.LVL72:
 728              		.loc 1 24 0
 729 00a2 13F0FF04 		ands	r4, r3, #255
 730              	.LVL73:
 731 00a6 F6D1     		bne	.L93
 732              	.LBE92:
 733              	.LBE91:
 734              	.LBE90:
 735              		.loc 1 106 0
 736 00a8 7DB3     		cbz	r5, .L142
 737              	.LVL74:
 738              	.L71:
 739              		.loc 1 134 0
 740 00aa 019A     		ldr	r2, [sp, #4]
 741 00ac 3368     		ldr	r3, [r6]
ARM GAS  /var/folders/r3/l17pxy9j13749mq5h96642rc0000gn/T//ccpnCvVG.s 			page 14


 742 00ae 9A42     		cmp	r2, r3
 743 00b0 40F09380 		bne	.L144
 744 00b4 02B0     		add	sp, sp, #8
 745              		.cfi_remember_state
 746              		.cfi_def_cfa_offset 24
 747              		@ sp needed
 748 00b6 BDEC028B 		vldm	sp!, {d8}
 749              		.cfi_restore 80
 750              		.cfi_restore 81
 751              		.cfi_def_cfa_offset 16
 752 00ba 70BD     		pop	{r4, r5, r6, pc}
 753              	.L140:
 754              		.cfi_restore_state
 755              		.loc 1 119 0
 756 00bc 9FED4F7A 		vldr.32	s14, .L150+28
 757 00c0 F4EEC78A 		vcmpe.f32	s17, s14
 758 00c4 F1EE10FA 		vmrs	APSR_nzcv, FPSCR
 759 00c8 04D5     		bpl	.L96
 760              		.loc 1 119 0 is_stmt 0 discriminator 1
 761 00ca F4EEE78A 		vcmpe.f32	s17, s15
 762 00ce F1EE10FA 		vmrs	APSR_nzcv, FPSCR
 763 00d2 5BDC     		bgt	.L149
 764              	.L96:
 765              		.loc 1 127 0 is_stmt 1
 766 00d4 DFED447A 		vldr.32	s15, .L150+8
 767 00d8 F4EEE78A 		vcmpe.f32	s17, s15
 768 00dc F1EE10FA 		vmrs	APSR_nzcv, FPSCR
 769 00e0 E3D5     		bpl	.L71
 770              		.loc 1 127 0 is_stmt 0 discriminator 1
 771 00e2 DFED467A 		vldr.32	s15, .L150+28
 772 00e6 F4EEE78A 		vcmpe.f32	s17, s15
 773 00ea F1EE10FA 		vmrs	APSR_nzcv, FPSCR
 774 00ee DCDD     		ble	.L71
 775 00f0 0A24     		movs	r4, #10
 776              	.LBB95:
 777              	.LBB96:
 778              		.loc 1 23 0 is_stmt 1
 779 00f2 0025     		movs	r5, #0
 780              	.L106:
 781              	.LVL75:
 782              	.LBB97:
 783              		.loc 1 25 0
 784 00f4 FFF7FEFF 		bl	get_line_found
 785              	.LVL76:
 786 00f8 631E     		subs	r3, r4, #1
 787              		.loc 1 26 0
 788 00fa 0028     		cmp	r0, #0
 789 00fc 18BF     		it	ne
 790 00fe 0125     		movne	r5, #1
 791              	.LVL77:
 792              		.loc 1 24 0
 793 0100 13F0FF04 		ands	r4, r3, #255
 794              	.LVL78:
 795 0104 F6D1     		bne	.L106
 796              	.LVL79:
 797              	.LBE97:
 798              	.LBE96:
ARM GAS  /var/folders/r3/l17pxy9j13749mq5h96642rc0000gn/T//ccpnCvVG.s 			page 15


 799              	.LBE95:
 800              		.loc 1 128 0
 801 0106 002D     		cmp	r5, #0
 802 0108 5DD1     		bne	.L107
 803              	.L142:
 804              		.loc 1 107 0
 805 010a FFF7FEFF 		bl	get_angle
 806              	.LVL80:
 807 010e B5EEC00A 		vcmpe.f32	s0, #0
 808 0112 F1EE10FA 		vmrs	APSR_nzcv, FPSCR
 809              	.LBB98:
 810              	.LBB99:
 811              		.loc 1 77 0
 812 0116 019A     		ldr	r2, [sp, #4]
 813 0118 3368     		ldr	r3, [r6]
 814              	.LBE99:
 815              	.LBE98:
 816              		.loc 1 107 0
 817 011a 2EDD     		ble	.L83
 818              	.LVL81:
 819              	.LBB101:
 820              	.LBB100:
 821              		.loc 1 77 0
 822 011c 9A42     		cmp	r2, r3
 823 011e 5CD1     		bne	.L144
 824 0120 40F24512 		movw	r2, #325
 825 0124 C821     		movs	r1, #200
 826 0126 6FF0C700 		mvn	r0, #199
 827              	.LVL82:
 828              	.L143:
 829              	.LBE100:
 830              	.LBE101:
 831              		.loc 1 134 0
 832 012a 02B0     		add	sp, sp, #8
 833              		.cfi_remember_state
 834              		.cfi_def_cfa_offset 24
 835              		@ sp needed
 836 012c BDEC028B 		vldm	sp!, {d8}
 837              		.cfi_restore 80
 838              		.cfi_restore 81
 839              		.cfi_def_cfa_offset 16
 840 0130 BDE87040 		pop	{r4, r5, r6, lr}
 841              		.cfi_restore 14
 842              		.cfi_restore 6
 843              		.cfi_restore 5
 844              		.cfi_restore 4
 845              		.cfi_def_cfa_offset 0
 846              	.LBB102:
 847              	.LBB103:
 848              		.loc 1 81 0
 849 0134 FFF7FEBF 		b	motor_turn
 850              	.LVL83:
 851              	.L148:
 852              		.cfi_restore_state
 853              	.LBE103:
 854              	.LBE102:
 855              	.LBB105:
ARM GAS  /var/folders/r3/l17pxy9j13749mq5h96642rc0000gn/T//ccpnCvVG.s 			page 16


 856              	.LBB106:
 857              		.loc 1 77 0
 858 0138 40F24512 		movw	r2, #325
 859 013c C821     		movs	r1, #200
 860 013e 6FF0C700 		mvn	r0, #199
 861 0142 FFF7FEFF 		bl	motor_turn
 862              	.LVL84:
 863              	.LBE106:
 864              	.LBE105:
 865              		.loc 1 105 0
 866 0146 2B4A     		ldr	r2, .L150+20
 867 0148 2B4B     		ldr	r3, .L150+24
 868 014a 1268     		ldr	r2, [r2]
 869 014c A3FB0232 		umull	r3, r2, r3, r2
 870 0150 9208     		lsrs	r2, r2, #2
 871              	.LVL85:
 872              	.LBB107:
 873              	.LBB108:
 874              		.loc 1 17 0
 875 0152 531E     		subs	r3, r2, #1
 876              	.LVL86:
 877 0154 1AB1     		cbz	r2, .L77
 878              	.LVL87:
 879              	.L78:
 880              		.loc 1 18 0
 881              		.syntax unified
 882              	@ 18 "pi_regulato.c" 1
 883 0156 00BF     		nop
 884              	@ 0 "" 2
 885              		.loc 1 17 0
 886              		.thumb
 887              		.syntax unified
 888 0158 13F1FF33 		adds	r3, r3, #-1
 889              	.LVL88:
 890 015c FBD2     		bcs	.L78
 891              	.LVL89:
 892              	.L77:
 893              	.LBE108:
 894              	.LBE107:
 895              		.loc 1 96 0
 896 015e 0A24     		movs	r4, #10
 897              	.LBB109:
 898              	.LBB89:
 899              		.loc 1 23 0
 900 0160 0025     		movs	r5, #0
 901              	.L80:
 902              	.LVL90:
 903              	.LBB88:
 904              		.loc 1 25 0
 905 0162 FFF7FEFF 		bl	get_line_found
 906              	.LVL91:
 907 0166 631E     		subs	r3, r4, #1
 908              		.loc 1 26 0
 909 0168 0028     		cmp	r0, #0
 910 016a 18BF     		it	ne
 911 016c 0125     		movne	r5, #1
 912              	.LVL92:
ARM GAS  /var/folders/r3/l17pxy9j13749mq5h96642rc0000gn/T//ccpnCvVG.s 			page 17


 913              		.loc 1 24 0
 914 016e 13F0FF04 		ands	r4, r3, #255
 915              	.LVL93:
 916 0172 F6D1     		bne	.L80
 917              	.LVL94:
 918              	.LBE88:
 919              	.LBE89:
 920              	.LBE109:
 921              		.loc 1 106 0
 922 0174 002D     		cmp	r5, #0
 923 0176 98D1     		bne	.L71
 924 0178 C7E7     		b	.L142
 925              	.LVL95:
 926              	.L83:
 927              	.LBB110:
 928              	.LBB111:
 929 017a 9A42     		cmp	r2, r3
 930 017c 2DD1     		bne	.L144
 931              	.LBE111:
 932              	.LBE110:
 933              		.loc 1 134 0
 934 017e 02B0     		add	sp, sp, #8
 935              		.cfi_remember_state
 936              		.cfi_def_cfa_offset 24
 937              		@ sp needed
 938 0180 BDEC028B 		vldm	sp!, {d8}
 939              		.cfi_restore 80
 940              		.cfi_restore 81
 941              		.cfi_def_cfa_offset 16
 942 0184 BDE87040 		pop	{r4, r5, r6, lr}
 943              		.cfi_restore 14
 944              		.cfi_restore 6
 945              		.cfi_restore 5
 946              		.cfi_restore 4
 947              		.cfi_def_cfa_offset 0
 948              	.LBB113:
 949              	.LBB112:
 950 0188 FFF7FEBF 		b	corner_turn.part.0
 951              	.LVL96:
 952              	.L149:
 953              		.cfi_restore_state
 954              	.LBE112:
 955              	.LBE113:
 956              	.LBB114:
 957              	.LBB115:
 958 018c FFF7FEFF 		bl	corner_turn.part.0
 959              	.LVL97:
 960              	.LBE115:
 961              	.LBE114:
 962              		.loc 1 121 0
 963 0190 184A     		ldr	r2, .L150+20
 964 0192 194B     		ldr	r3, .L150+24
 965 0194 1268     		ldr	r2, [r2]
 966 0196 A3FB0232 		umull	r3, r2, r3, r2
 967 019a 9208     		lsrs	r2, r2, #2
 968              	.LVL98:
 969              	.LBB116:
ARM GAS  /var/folders/r3/l17pxy9j13749mq5h96642rc0000gn/T//ccpnCvVG.s 			page 18


 970              	.LBB117:
 971              		.loc 1 17 0
 972 019c 531E     		subs	r3, r2, #1
 973              	.LVL99:
 974 019e 1AB1     		cbz	r2, .L99
 975              	.LVL100:
 976              	.L100:
 977              		.loc 1 18 0
 978              		.syntax unified
 979              	@ 18 "pi_regulato.c" 1
 980 01a0 00BF     		nop
 981              	@ 0 "" 2
 982              		.loc 1 17 0
 983              		.thumb
 984              		.syntax unified
 985 01a2 13F1FF33 		adds	r3, r3, #-1
 986              	.LVL101:
 987 01a6 FBD2     		bcs	.L100
 988              	.LVL102:
 989              	.L99:
 990              	.LBE117:
 991              	.LBE116:
 992              	.LBB118:
 993              	.LBB94:
 994              	.LBB93:
 995              		.loc 1 26 0
 996 01a8 0A24     		movs	r4, #10
 997              	.LBE93:
 998              	.LBE94:
 999              	.LBE118:
 1000              	.LBB119:
 1001              	.LBB120:
 1002              		.loc 1 23 0
 1003 01aa 0025     		movs	r5, #0
 1004              	.L102:
 1005              	.LVL103:
 1006              	.LBB121:
 1007              		.loc 1 25 0
 1008 01ac FFF7FEFF 		bl	get_line_found
 1009              	.LVL104:
 1010 01b0 631E     		subs	r3, r4, #1
 1011              		.loc 1 26 0
 1012 01b2 0028     		cmp	r0, #0
 1013 01b4 18BF     		it	ne
 1014 01b6 0125     		movne	r5, #1
 1015              	.LVL105:
 1016              		.loc 1 24 0
 1017 01b8 13F0FF04 		ands	r4, r3, #255
 1018              	.LVL106:
 1019 01bc F6D1     		bne	.L102
 1020              	.LBE121:
 1021              	.LBE120:
 1022              	.LBE119:
 1023              		.loc 1 106 0
 1024 01be 002D     		cmp	r5, #0
 1025 01c0 7FF473AF 		bne	.L71
 1026 01c4 A1E7     		b	.L142
ARM GAS  /var/folders/r3/l17pxy9j13749mq5h96642rc0000gn/T//ccpnCvVG.s 			page 19


 1027              	.LVL107:
 1028              	.L107:
 1029              	.LBB122:
 1030              	.LBB104:
 1031              		.loc 1 81 0
 1032 01c6 019A     		ldr	r2, [sp, #4]
 1033 01c8 3368     		ldr	r3, [r6]
 1034 01ca 9A42     		cmp	r2, r3
 1035 01cc 05D1     		bne	.L144
 1036 01ce 4FF4C871 		mov	r1, #400
 1037 01d2 0846     		mov	r0, r1
 1038 01d4 4FF49672 		mov	r2, #300
 1039 01d8 A7E7     		b	.L143
 1040              	.LVL108:
 1041              	.L144:
 1042              	.LBE104:
 1043              	.LBE122:
 1044              		.loc 1 134 0
 1045 01da FFF7FEFF 		bl	__stack_chk_fail
 1046              	.LVL109:
 1047              	.L151:
 1048 01de 00BF     		.align	2
 1049              	.L150:
 1050 01e0 00000000 		.word	__stack_chk_guard
 1051 01e4 00803B45 		.word	1161527296
 1052 01e8 C3F5483F 		.word	1061746115
 1053 01ec 52B81640 		.word	1075230802
 1054 01f0 52B816C0 		.word	3222714450
 1055 01f4 00000000 		.word	SystemCoreClock
 1056 01f8 CDCCCCCC 		.word	-858993459
 1057 01fc C3F548BF 		.word	3209229763
 1058              		.cfi_endproc
 1059              	.LFE265:
 1060              		.size	turn_choice, .-turn_choice
 1061              		.section	.text.pi_collision_regulator,"ax",%progbits
 1062              		.align	1
 1063              		.p2align 4,,15
 1064              		.global	pi_collision_regulator
 1065              		.syntax unified
 1066              		.thumb
 1067              		.thumb_func
 1068              		.fpu fpv4-sp-d16
 1069              		.type	pi_collision_regulator, %function
 1070              	pi_collision_regulator:
 1071              	.LFB266:
 1072              		.loc 1 138 0
 1073              		.cfi_startproc
 1074              		@ args = 0, pretend = 0, frame = 8
 1075              		@ frame_needed = 0, uses_anonymous_args = 0
 1076              	.LVL110:
 1077              		.loc 1 144 0
 1078 0000 3238     		subs	r0, r0, #50
 1079              	.LVL111:
 1080              		.loc 1 138 0
 1081 0002 00B5     		push	{lr}
 1082              		.cfi_def_cfa_offset 4
 1083              		.cfi_offset 14, -4
ARM GAS  /var/folders/r3/l17pxy9j13749mq5h96642rc0000gn/T//ccpnCvVG.s 			page 20


 1084              		.loc 1 144 0
 1085 0004 07EE900A 		vmov	s15, r0	@ int
 1086 0008 B8EEE77A 		vcvt.f32.s32	s14, s15
 1087              		.loc 1 138 0
 1088 000c 2D4B     		ldr	r3, .L171
 1089              		.loc 1 147 0
 1090 000e F0EEC77A 		vabs.f32	s15, s14
 1091 0012 F1EE046A 		vmov.f32	s13, #5.0e+0
 1092              		.loc 1 138 0
 1093 0016 83B0     		sub	sp, sp, #12
 1094              		.cfi_def_cfa_offset 16
 1095              		.loc 1 147 0
 1096 0018 F4EEE67A 		vcmpe.f32	s15, s13
 1097              		.loc 1 138 0
 1098 001c 1A68     		ldr	r2, [r3]
 1099 001e 0192     		str	r2, [sp, #4]
 1100              	.LVL112:
 1101              		.loc 1 147 0
 1102 0020 F1EE10FA 		vmrs	APSR_nzcv, FPSCR
 1103 0024 39D4     		bmi	.L163
 1104              		.loc 1 150 0
 1105 0026 DFED286A 		vldr.32	s13, .L171+4
 1106 002a F4EEE67A 		vcmpe.f32	s15, s13
 1107 002e F1EE10FA 		vmrs	APSR_nzcv, FPSCR
 1108 0032 32DC     		bgt	.L163
 1109              		.loc 1 154 0
 1110 0034 254A     		ldr	r2, .L171+8
 1111              		.loc 1 157 0
 1112 0036 DFED266A 		vldr.32	s13, .L171+12
 1113              		.loc 1 154 0
 1114 003a D2ED007A 		vldr.32	s15, [r2]
 1115 003e 77EE277A 		vadd.f32	s15, s14, s15
 1116              		.loc 1 157 0
 1117 0042 F4EEE67A 		vcmpe.f32	s15, s13
 1118 0046 F1EE10FA 		vmrs	APSR_nzcv, FPSCR
 1119 004a 2EDC     		bgt	.L169
 1120              		.loc 1 159 0
 1121 004c DFED216A 		vldr.32	s13, .L171+16
 1122 0050 F4EEE67A 		vcmpe.f32	s15, s13
 1123 0054 F1EE10FA 		vmrs	APSR_nzcv, FPSCR
 1124 0058 2CD4     		bmi	.L157
 1125 005a DFED1F6A 		vldr.32	s13, .L171+20
 1126              		.loc 1 154 0
 1127 005e C2ED007A 		vstr.32	s15, [r2]
 1128 0062 67EEA67A 		vmul.f32	s15, s15, s13
 1129              	.L156:
 1130              		.loc 1 163 0
 1131 0066 F3EE046A 		vmov.f32	s13, #2.0e+1
 1132 006a E7EE267A 		vfma.f32	s15, s14, s13
 1133              	.LVL113:
 1134              		.loc 1 166 0
 1135 006e 9FED1B7A 		vldr.32	s14, .L171+24
 1136              	.LVL114:
 1137              		.loc 1 165 0
 1138 0072 F5EEC07A 		vcmpe.f32	s15, #0
 1139 0076 F1EE10FA 		vmrs	APSR_nzcv, FPSCR
 1140 007a 48BF     		it	mi
ARM GAS  /var/folders/r3/l17pxy9j13749mq5h96642rc0000gn/T//ccpnCvVG.s 			page 21


 1141 007c 77EEA77A 		vaddmi.f32	s15, s15, s15
 1142              	.LVL115:
 1143              		.loc 1 166 0
 1144 0080 F4EEC77A 		vcmpe.f32	s15, s14
 1145 0084 F1EE10FA 		vmrs	APSR_nzcv, FPSCR
 1146 0088 D7BF     		itett	le
 1147 008a FDEEE77A 		vcvtle.s32.f32	s15, s15
 1148              	.LVL116:
 1149 008e 4FF4C870 		movgt	r0, #400
 1150              	.LVL117:
 1151 0092 17EE902A 		vmovle	r2, s15	@ int
 1152 0096 10B2     		sxthle	r0, r2
 1153              		.loc 1 168 0
 1154 0098 00E0     		b	.L153
 1155              	.LVL118:
 1156              	.L163:
 1157              		.loc 1 148 0
 1158 009a 0020     		movs	r0, #0
 1159              	.LVL119:
 1160              	.L153:
 1161              		.loc 1 169 0
 1162 009c 019A     		ldr	r2, [sp, #4]
 1163 009e 1B68     		ldr	r3, [r3]
 1164 00a0 9A42     		cmp	r2, r3
 1165 00a2 0CD1     		bne	.L170
 1166 00a4 03B0     		add	sp, sp, #12
 1167              		.cfi_remember_state
 1168              		.cfi_def_cfa_offset 4
 1169              		@ sp needed
 1170 00a6 5DF804FB 		ldr	pc, [sp], #4
 1171              	.LVL120:
 1172              	.L169:
 1173              		.cfi_restore_state
 1174              		.loc 1 158 0
 1175 00aa C2ED006A 		vstr.32	s13, [r2]
 1176 00ae DFED0B7A 		vldr.32	s15, .L171+24
 1177 00b2 D8E7     		b	.L156
 1178              	.L157:
 1179              		.loc 1 160 0
 1180 00b4 DFED0A7A 		vldr.32	s15, .L171+28
 1181 00b8 C2ED006A 		vstr.32	s13, [r2]
 1182 00bc D3E7     		b	.L156
 1183              	.LVL121:
 1184              	.L170:
 1185              		.loc 1 169 0
 1186 00be FFF7FEFF 		bl	__stack_chk_fail
 1187              	.LVL122:
 1188              	.L172:
 1189 00c2 00BF     		.align	2
 1190              	.L171:
 1191 00c4 00000000 		.word	__stack_chk_guard
 1192 00c8 00001643 		.word	1125515264
 1193 00cc 00000000 		.word	.LANCHOR0
 1194 00d0 FF4F4348 		.word	1212370943
 1195 00d4 FF4F43C8 		.word	3359854591
 1196 00d8 6F12033B 		.word	990057071
 1197 00dc 0000C843 		.word	1137180672
ARM GAS  /var/folders/r3/l17pxy9j13749mq5h96642rc0000gn/T//ccpnCvVG.s 			page 22


 1198 00e0 0000C8C3 		.word	3284664320
 1199              		.cfi_endproc
 1200              	.LFE266:
 1201              		.size	pi_collision_regulator, .-pi_collision_regulator
 1202              		.section	.text.Mouvment,"ax",%progbits
 1203              		.align	1
 1204              		.p2align 4,,15
 1205              		.syntax unified
 1206              		.thumb
 1207              		.thumb_func
 1208              		.fpu fpv4-sp-d16
 1209              		.type	Mouvment, %function
 1210              	Mouvment:
 1211              	.LFB268:
 1212              		.loc 1 191 0
 1213              		.cfi_startproc
 1214              		@ args = 0, pretend = 0, frame = 8
 1215              		@ frame_needed = 0, uses_anonymous_args = 0
 1216              	.LVL123:
 1217 0000 2DE9F047 		push	{r4, r5, r6, r7, r8, r9, r10, lr}
 1218              		.cfi_def_cfa_offset 32
 1219              		.cfi_offset 4, -32
 1220              		.cfi_offset 5, -28
 1221              		.cfi_offset 6, -24
 1222              		.cfi_offset 7, -20
 1223              		.cfi_offset 8, -16
 1224              		.cfi_offset 9, -12
 1225              		.cfi_offset 10, -8
 1226              		.cfi_offset 14, -4
 1227 0004 2DED028B 		vpush.64	{d8}
 1228              		.cfi_def_cfa_offset 40
 1229              		.cfi_offset 80, -40
 1230              		.cfi_offset 81, -36
 1231              	.LBB143:
 1232              	.LBB144:
 1233              		.file 2 "../e-puck2_main-processor/ChibiOS//os/rt/include/chregistry.h"
 1234              		.loc 2 135 0
 1235 0008 434D     		ldr	r5, .L190
 1236              	.LBE144:
 1237              	.LBE143:
 1238              		.loc 1 191 0
 1239 000a 444B     		ldr	r3, .L190+4
 1240              	.LBB147:
 1241              	.LBB145:
 1242              		.loc 2 135 0
 1243 000c AA69     		ldr	r2, [r5, #24]
 1244 000e 4449     		ldr	r1, .L190+8
 1245              	.LBE145:
 1246              	.LBE147:
 1247              		.loc 1 191 0
 1248 0010 1B68     		ldr	r3, [r3]
 1249 0012 DFF81481 		ldr	r8, .L190+16
 1250              		.loc 1 203 0
 1251 0016 9FED438A 		vldr.32	s16, .L190+12
 1252              	.LBB148:
 1253              	.LBB149:
 1254              	.LBB150:
ARM GAS  /var/folders/r3/l17pxy9j13749mq5h96642rc0000gn/T//ccpnCvVG.s 			page 23


 1255              	.LBB151:
 1256              		.file 3 "../e-puck2_main-processor/ChibiOS//os/rt/include/chsys.h"
 1257              		.loc 3 367 0
 1258 001a DFF81091 		ldr	r9, .L190+20
 1259              	.LBE151:
 1260              	.LBE150:
 1261              	.LBE149:
 1262              	.LBE148:
 1263              	.LBB171:
 1264              	.LBB146:
 1265              		.loc 2 135 0
 1266 001e 9161     		str	r1, [r2, #24]
 1267              	.LBE146:
 1268              	.LBE171:
 1269              		.loc 1 191 0
 1270 0020 82B0     		sub	sp, sp, #8
 1271              		.cfi_def_cfa_offset 48
 1272              	.LBB172:
 1273              	.LBB169:
 1274              	.LBB156:
 1275              	.LBB157:
 1276              	.LBB158:
 1277              	.LBB159:
 1278              	.LBB160:
 1279              		.file 4 "../e-puck2_main-processor/ChibiOS//os/ext/CMSIS/include/core_cmFunc.h"
 1280              		.loc 4 546 0
 1281 0022 2027     		movs	r7, #32
 1282              	.LBE160:
 1283              	.LBE159:
 1284              	.LBE158:
 1285              	.LBE157:
 1286              	.LBE156:
 1287              	.LBE169:
 1288              	.LBE172:
 1289              		.loc 1 191 0
 1290 0024 0193     		str	r3, [sp, #4]
 1291              	.LVL124:
 1292 0026 2CE0     		b	.L181
 1293              	.LVL125:
 1294              	.L189:
 1295              		.loc 1 206 0
 1296 0028 FFF7FEFF 		bl	get_error_line
 1297              	.LVL126:
 1298 002c 07EE900A 		vmov	s15, r0	@ int
 1299 0030 F8EEE77A 		vcvt.f32.s32	s15, s15
 1300              	.LVL127:
 1301              	.LBB173:
 1302              	.LBB174:
 1303              		.loc 1 179 0
 1304 0034 B1EE047A 		vmov.f32	s14, #5.0e+0
 1305 0038 F0EEE76A 		vabs.f32	s13, s15
 1306 003c F4EEC76A 		vcmpe.f32	s13, s14
 1307 0040 F1EE10FA 		vmrs	APSR_nzcv, FPSCR
 1308 0044 52D5     		bpl	.L187
 1309              	.L177:
 1310              	.LVL128:
 1311              	.LBE174:
ARM GAS  /var/folders/r3/l17pxy9j13749mq5h96642rc0000gn/T//ccpnCvVG.s 			page 24


 1312              	.LBE173:
 1313              		.loc 1 209 0
 1314 0046 FFF7FEFF 		bl	VL53L0X_get_dist_mm
 1315              	.LVL129:
 1316 004a 8246     		mov	r10, r0
 1317              	.LVL130:
 1318              		.loc 1 212 0
 1319 004c FFF7FEFF 		bl	get_line_width
 1320              	.LVL131:
 1321 0050 B0F5967F 		cmp	r0, #300
 1322 0054 45DC     		bgt	.L188
 1323              		.loc 1 209 0
 1324 0056 AAF1280A 		sub	r10, r10, #40
 1325              	.LVL132:
 1326 005a 0FFA8AFA 		sxth	r10, r10
 1327              	.LVL133:
 1328              		.loc 1 224 0
 1329 005e BAF1950F 		cmp	r10, #149
 1330 0062 35DC     		bgt	.L180
 1331              		.loc 1 225 0
 1332 0064 5046     		mov	r0, r10
 1333 0066 FFF7FEFF 		bl	pi_collision_regulator
 1334              	.LVL134:
 1335 006a FFF7FEFF 		bl	right_motor_set_speed
 1336              	.LVL135:
 1337              		.loc 1 226 0
 1338 006e 5046     		mov	r0, r10
 1339 0070 FFF7FEFF 		bl	pi_collision_regulator
 1340              	.LVL136:
 1341 0074 FFF7FEFF 		bl	left_motor_set_speed
 1342              	.LVL137:
 1343              	.L179:
 1344              		.loc 1 242 0
 1345 0078 06F10A01 		add	r1, r6, #10
 1346 007c 3046     		mov	r0, r6
 1347 007e FFF7FEFF 		bl	chThdSleepUntilWindowed
 1348              	.LVL138:
 1349              	.L181:
 1350              	.LBB178:
 1351              	.LBB170:
 1352              	.LBB165:
 1353              	.LBB164:
 1354              	.LBB163:
 1355              	.LBB162:
 1356              	.LBB161:
 1357              		.loc 4 546 0
 1358              		.syntax unified
 1359              	@ 546 "../e-puck2_main-processor/ChibiOS//os/ext/CMSIS/include/core_cmFunc.h" 1
 1360 0082 87F31188 		MSR basepri, r7
 1361              	@ 0 "" 2
 1362              	.LVL139:
 1363              		.thumb
 1364              		.syntax unified
 1365              	.LBE161:
 1366              	.LBE162:
 1367              	.LBE163:
 1368              		.loc 3 349 0
ARM GAS  /var/folders/r3/l17pxy9j13749mq5h96642rc0000gn/T//ccpnCvVG.s 			page 25


 1369 0086 FFF7FEFF 		bl	_stats_start_measure_crit_thd
 1370              	.LVL140:
 1371              		.loc 3 350 0
 1372 008a FFF7FEFF 		bl	_dbg_check_lock
 1373              	.LVL141:
 1374              	.LBE164:
 1375              	.LBE165:
 1376              	.LBB166:
 1377              	.LBB167:
 1378              		.file 5 "../e-puck2_main-processor/ChibiOS//os/rt/include/chvt.h"
 1379              		.loc 5 231 0
 1380 008e AE6A     		ldr	r6, [r5, #40]
 1381              	.LBE167:
 1382              	.LBE166:
 1383              	.LBB168:
 1384              	.LBB155:
 1385              		.loc 3 360 0
 1386 0090 FFF7FEFF 		bl	_dbg_check_unlock
 1387              	.LVL142:
 1388              		.loc 3 361 0
 1389 0094 FFF7FEFF 		bl	_stats_stop_measure_crit_thd
 1390              	.LVL143:
 1391              		.loc 3 367 0
 1392 0098 2B68     		ldr	r3, [r5]
 1393 009a AB42     		cmp	r3, r5
 1394 009c 07D0     		beq	.L174
 1395 009e AA69     		ldr	r2, [r5, #24]
 1396 00a0 9B68     		ldr	r3, [r3, #8]
 1397 00a2 9268     		ldr	r2, [r2, #8]
 1398 00a4 9A42     		cmp	r2, r3
 1399 00a6 02D2     		bcs	.L174
 1400 00a8 4846     		mov	r0, r9
 1401 00aa FFF7FEFF 		bl	chSysHalt
 1402              	.LVL144:
 1403              	.L174:
 1404              	.LBB152:
 1405              	.LBB153:
 1406              	.LBB154:
 1407              		.loc 4 546 0
 1408 00ae 0024     		movs	r4, #0
 1409              		.syntax unified
 1410              	@ 546 "../e-puck2_main-processor/ChibiOS//os/ext/CMSIS/include/core_cmFunc.h" 1
 1411 00b0 84F31188 		MSR basepri, r4
 1412              	@ 0 "" 2
 1413              	.LVL145:
 1414              		.thumb
 1415              		.syntax unified
 1416              	.LBE154:
 1417              	.LBE153:
 1418              	.LBE152:
 1419              	.LBE155:
 1420              	.LBE168:
 1421              	.LBE170:
 1422              	.LBE178:
 1423              		.loc 1 203 0
 1424 00b4 FFF7FEFF 		bl	get_amp
 1425              	.LVL146:
ARM GAS  /var/folders/r3/l17pxy9j13749mq5h96642rc0000gn/T//ccpnCvVG.s 			page 26


 1426 00b8 B4EEC80A 		vcmpe.f32	s0, s16
 1427 00bc F1EE10FA 		vmrs	APSR_nzcv, FPSCR
 1428 00c0 B2DC     		bgt	.L189
 1429              		.loc 1 236 0
 1430 00c2 2046     		mov	r0, r4
 1431 00c4 FFF7FEFF 		bl	right_motor_set_speed
 1432              	.LVL147:
 1433              		.loc 1 237 0
 1434 00c8 2046     		mov	r0, r4
 1435 00ca FFF7FEFF 		bl	left_motor_set_speed
 1436              	.LVL148:
 1437 00ce D3E7     		b	.L179
 1438              	.LVL149:
 1439              	.L180:
 1440              		.loc 1 229 0
 1441 00d0 C4F5C870 		rsb	r0, r4, #400
 1442 00d4 FFF7FEFF 		bl	right_motor_set_speed
 1443              	.LVL150:
 1444              		.loc 1 230 0
 1445 00d8 04F5C870 		add	r0, r4, #400
 1446 00dc FFF7FEFF 		bl	left_motor_set_speed
 1447              	.LVL151:
 1448 00e0 CAE7     		b	.L179
 1449              	.LVL152:
 1450              	.L188:
 1451              		.loc 1 218 0
 1452 00e2 FFF7FEFF 		bl	corner_approch
 1453              	.LVL153:
 1454              		.loc 1 219 0
 1455 00e6 FFF7FEFF 		bl	turn_choice
 1456              	.LVL154:
 1457 00ea C5E7     		b	.L179
 1458              	.LVL155:
 1459              	.L187:
 1460              	.LBB179:
 1461              	.LBB177:
 1462              	.LBB175:
 1463              	.LBB176:
 1464              		.loc 1 183 0
 1465 00ec D8ED006A 		vldr.32	s13, [r8]
 1466              		.loc 1 185 0
 1467 00f0 C8ED007A 		vstr.32	s15, [r8]
 1468              		.loc 1 183 0
 1469 00f4 77EEE66A 		vsub.f32	s13, s15, s13
 1470 00f8 B2EE046A 		vmov.f32	s12, #1.0e+1
 1471 00fc 86EE867A 		vdiv.f32	s14, s13, s12
 1472 0100 F0EE006A 		vmov.f32	s13, #2.0e+0
 1473 0104 37EE077A 		vadd.f32	s14, s14, s14
 1474 0108 A7EEA67A 		vfma.f32	s14, s15, s13
 1475              	.LVL156:
 1476              		.loc 1 186 0
 1477 010c BDEEC77A 		vcvt.s32.f32	s14, s14
 1478              	.LVL157:
 1479 0110 17EE103A 		vmov	r3, s14	@ int
 1480 0114 1CB2     		sxth	r4, r3
 1481              	.LVL158:
 1482 0116 96E7     		b	.L177
ARM GAS  /var/folders/r3/l17pxy9j13749mq5h96642rc0000gn/T//ccpnCvVG.s 			page 27


 1483              	.L191:
 1484              		.align	2
 1485              	.L190:
 1486 0118 00000000 		.word	ch
 1487 011c 00000000 		.word	__stack_chk_guard
 1488 0120 00000000 		.word	.LANCHOR1
 1489 0124 00803B45 		.word	1161527296
 1490 0128 00000000 		.word	.LANCHOR3
 1491 012c 00000000 		.word	.LANCHOR2
 1492              	.LBE176:
 1493              	.LBE175:
 1494              	.LBE177:
 1495              	.LBE179:
 1496              		.cfi_endproc
 1497              	.LFE268:
 1498              		.size	Mouvment, .-Mouvment
 1499              		.section	.text.pd_regulator,"ax",%progbits
 1500              		.align	1
 1501              		.p2align 4,,15
 1502              		.global	pd_regulator
 1503              		.syntax unified
 1504              		.thumb
 1505              		.thumb_func
 1506              		.fpu fpv4-sp-d16
 1507              		.type	pd_regulator, %function
 1508              	pd_regulator:
 1509              	.LFB267:
 1510              		.loc 1 173 0
 1511              		.cfi_startproc
 1512              		@ args = 0, pretend = 0, frame = 8
 1513              		@ frame_needed = 0, uses_anonymous_args = 0
 1514              	.LVL159:
 1515 0000 00B5     		push	{lr}
 1516              		.cfi_def_cfa_offset 4
 1517              		.cfi_offset 14, -4
 1518 0002 174B     		ldr	r3, .L198
 1519              		.loc 1 179 0
 1520 0004 B0EEC07A 		vabs.f32	s14, s0
 1521 0008 F1EE047A 		vmov.f32	s15, #5.0e+0
 1522              		.loc 1 173 0
 1523 000c 83B0     		sub	sp, sp, #12
 1524              		.cfi_def_cfa_offset 16
 1525              		.loc 1 179 0
 1526 000e B4EEE77A 		vcmpe.f32	s14, s15
 1527              		.loc 1 173 0
 1528 0012 1A68     		ldr	r2, [r3]
 1529 0014 0192     		str	r2, [sp, #4]
 1530              	.LVL160:
 1531              		.loc 1 179 0
 1532 0016 F1EE10FA 		vmrs	APSR_nzcv, FPSCR
 1533 001a 1CD4     		bmi	.L195
 1534              	.LVL161:
 1535              	.LBB182:
 1536              	.LBB183:
 1537              		.loc 1 183 0
 1538 001c 114A     		ldr	r2, .L198+4
 1539 001e 92ED007A 		vldr.32	s14, [r2]
ARM GAS  /var/folders/r3/l17pxy9j13749mq5h96642rc0000gn/T//ccpnCvVG.s 			page 28


 1540              		.loc 1 185 0
 1541 0022 82ED000A 		vstr.32	s0, [r2]
 1542              		.loc 1 183 0
 1543 0026 30EE477A 		vsub.f32	s14, s0, s14
 1544 002a F2EE046A 		vmov.f32	s13, #1.0e+1
 1545 002e C7EE267A 		vdiv.f32	s15, s14, s13
 1546 0032 B0EE007A 		vmov.f32	s14, #2.0e+0
 1547 0036 77EEA77A 		vadd.f32	s15, s15, s15
 1548 003a E0EE077A 		vfma.f32	s15, s0, s14
 1549              	.LVL162:
 1550              		.loc 1 186 0
 1551 003e FDEEE77A 		vcvt.s32.f32	s15, s15
 1552              	.LVL163:
 1553 0042 17EE902A 		vmov	r2, s15	@ int
 1554 0046 10B2     		sxth	r0, r2
 1555              	.LVL164:
 1556              	.L193:
 1557              	.LBE183:
 1558              	.LBE182:
 1559              		.loc 1 187 0
 1560 0048 019A     		ldr	r2, [sp, #4]
 1561 004a 1B68     		ldr	r3, [r3]
 1562 004c 9A42     		cmp	r2, r3
 1563 004e 04D1     		bne	.L197
 1564 0050 03B0     		add	sp, sp, #12
 1565              		.cfi_remember_state
 1566              		.cfi_def_cfa_offset 4
 1567              		@ sp needed
 1568 0052 5DF804FB 		ldr	pc, [sp], #4
 1569              	.L195:
 1570              		.cfi_restore_state
 1571              		.loc 1 180 0
 1572 0056 0020     		movs	r0, #0
 1573 0058 F6E7     		b	.L193
 1574              	.L197:
 1575              		.loc 1 187 0
 1576 005a FFF7FEFF 		bl	__stack_chk_fail
 1577              	.LVL165:
 1578              	.L199:
 1579 005e 00BF     		.align	2
 1580              	.L198:
 1581 0060 00000000 		.word	__stack_chk_guard
 1582 0064 00000000 		.word	.LANCHOR3
 1583              		.cfi_endproc
 1584              	.LFE267:
 1585              		.size	pd_regulator, .-pd_regulator
 1586              		.section	.text.mouvment_start,"ax",%progbits
 1587              		.align	1
 1588              		.p2align 4,,15
 1589              		.global	mouvment_start
 1590              		.syntax unified
 1591              		.thumb
 1592              		.thumb_func
 1593              		.fpu fpv4-sp-d16
 1594              		.type	mouvment_start, %function
 1595              	mouvment_start:
 1596              	.LFB269:
ARM GAS  /var/folders/r3/l17pxy9j13749mq5h96642rc0000gn/T//ccpnCvVG.s 			page 29


 1597              		.loc 1 247 0
 1598              		.cfi_startproc
 1599              		@ args = 0, pretend = 0, frame = 8
 1600              		@ frame_needed = 0, uses_anonymous_args = 0
 1601 0000 10B5     		push	{r4, lr}
 1602              		.cfi_def_cfa_offset 8
 1603              		.cfi_offset 4, -8
 1604              		.cfi_offset 14, -4
 1605 0002 0A4C     		ldr	r4, .L204
 1606              		.loc 1 248 0
 1607 0004 0A4B     		ldr	r3, .L204+4
 1608              		.loc 1 247 0
 1609 0006 2268     		ldr	r2, [r4]
 1610              		.loc 1 248 0
 1611 0008 0A48     		ldr	r0, .L204+8
 1612              		.loc 1 247 0
 1613 000a 84B0     		sub	sp, sp, #16
 1614              		.cfi_def_cfa_offset 24
 1615              		.loc 1 248 0
 1616 000c 4FF4AF61 		mov	r1, #1400
 1617              		.loc 1 247 0
 1618 0010 0392     		str	r2, [sp, #12]
 1619              		.loc 1 248 0
 1620 0012 0022     		movs	r2, #0
 1621 0014 0092     		str	r2, [sp]
 1622 0016 4022     		movs	r2, #64
 1623 0018 FFF7FEFF 		bl	chThdCreateStatic
 1624              	.LVL166:
 1625              		.loc 1 249 0
 1626 001c 039A     		ldr	r2, [sp, #12]
 1627 001e 2368     		ldr	r3, [r4]
 1628 0020 9A42     		cmp	r2, r3
 1629 0022 01D1     		bne	.L203
 1630 0024 04B0     		add	sp, sp, #16
 1631              		.cfi_remember_state
 1632              		.cfi_def_cfa_offset 8
 1633              		@ sp needed
 1634 0026 10BD     		pop	{r4, pc}
 1635              	.L203:
 1636              		.cfi_restore_state
 1637 0028 FFF7FEFF 		bl	__stack_chk_fail
 1638              	.LVL167:
 1639              	.L205:
 1640              		.align	2
 1641              	.L204:
 1642 002c 00000000 		.word	__stack_chk_guard
 1643 0030 00000000 		.word	Mouvment
 1644 0034 00000000 		.word	.LANCHOR4
 1645              		.cfi_endproc
 1646              	.LFE269:
 1647              		.size	mouvment_start, .-mouvment_start
 1648              		.section	.bss.old_error.13452,"aw",%nobits
 1649              		.align	2
 1650              		.set	.LANCHOR3,. + 0
 1651              		.type	old_error.13452, %object
 1652              		.size	old_error.13452, 4
 1653              	old_error.13452:
ARM GAS  /var/folders/r3/l17pxy9j13749mq5h96642rc0000gn/T//ccpnCvVG.s 			page 30


 1654 0000 00000000 		.space	4
 1655              		.section	.bss.sum_error.13447,"aw",%nobits
 1656              		.align	2
 1657              		.set	.LANCHOR0,. + 0
 1658              		.type	sum_error.13447, %object
 1659              		.size	sum_error.13447, 4
 1660              	sum_error.13447:
 1661 0000 00000000 		.space	4
 1662              		.section	.bss.waMouvment,"aw",%nobits
 1663              		.align	3
 1664              		.set	.LANCHOR4,. + 0
 1665              		.type	waMouvment, %object
 1666              		.size	waMouvment, 1400
 1667              	waMouvment:
 1668 0000 00000000 		.space	1400
 1668      00000000 
 1668      00000000 
 1668      00000000 
 1668      00000000 
 1669              		.section	.rodata.__FUNCTION__.13457,"a",%progbits
 1670              		.align	2
 1671              		.set	.LANCHOR1,. + 0
 1672              		.type	__FUNCTION__.13457, %object
 1673              		.size	__FUNCTION__.13457, 9
 1674              	__FUNCTION__.13457:
 1675 0000 4D6F7576 		.ascii	"Mouvment\000"
 1675      6D656E74 
 1675      00
 1676              		.section	.rodata.__func__.7153,"a",%progbits
 1677              		.align	2
 1678              		.set	.LANCHOR2,. + 0
 1679              		.type	__func__.7153, %object
 1680              		.size	__func__.7153, 12
 1681              	__func__.7153:
 1682 0000 63685379 		.ascii	"chSysUnlock\000"
 1682      73556E6C 
 1682      6F636B00 
 1683              		.text
 1684              	.Letext0:
 1685              		.file 6 "/Applications/Eclipse_e-puck2.app/Contents/Eclipse_e-puck2/Tools/gcc-arm-none-eabi-7-2017
 1686              		.file 7 "/Applications/Eclipse_e-puck2.app/Contents/Eclipse_e-puck2/Tools/gcc-arm-none-eabi-7-2017
 1687              		.file 8 "/Applications/Eclipse_e-puck2.app/Contents/Eclipse_e-puck2/Tools/gcc-arm-none-eabi-7-2017
 1688              		.file 9 "../e-puck2_main-processor/ChibiOS//os/rt/ports/ARMCMx/compilers/GCC/chtypes.h"
 1689              		.file 10 "../e-puck2_main-processor/ChibiOS//os/rt/include/chsystypes.h"
 1690              		.file 11 "../e-puck2_main-processor/ChibiOS//os/rt/include/chschd.h"
 1691              		.file 12 "../e-puck2_main-processor/ChibiOS//os/ext/CMSIS/include/core_cm4.h"
 1692              		.file 13 "../e-puck2_main-processor/ChibiOS//os/ext/CMSIS/ST/system_stm32f4xx.h"
 1693              		.file 14 "../e-puck2_main-processor/ChibiOS//os/ext/CMSIS/ST/stm32f407xx.h"
 1694              		.file 15 "../e-puck2_main-processor/ChibiOS//os/rt/ports/ARMCMx/chcore.h"
 1695              		.file 16 "../e-puck2_main-processor/ChibiOS//os/rt/ports/ARMCMx/chcore_v7m.h"
 1696              		.file 17 "../e-puck2_main-processor/ChibiOS//os/rt/include/chdebug.h"
 1697              		.file 18 "../e-puck2_main-processor/ChibiOS//os/rt/include/chtm.h"
 1698              		.file 19 "../e-puck2_main-processor/ChibiOS//os/rt/include/chstats.h"
 1699              		.file 20 "../e-puck2_main-processor/ChibiOS//os/rt/include/chsem.h"
 1700              		.file 21 "../e-puck2_main-processor/ChibiOS//os/rt/include/chmtx.h"
 1701              		.file 22 "../e-puck2_main-processor/ChibiOS//os/rt/include/chevents.h"
 1702              		.file 23 "../e-puck2_main-processor/ChibiOS//os/rt/include/chqueues.h"
ARM GAS  /var/folders/r3/l17pxy9j13749mq5h96642rc0000gn/T//ccpnCvVG.s 			page 31


 1703              		.file 24 "../e-puck2_main-processor/ChibiOS//os/hal/ports/STM32/STM32F4xx/stm32_dma.h"
 1704              		.file 25 "../e-puck2_main-processor/ChibiOS//os/hal/include/hal_ioblock.h"
 1705              		.file 26 "../e-puck2_main-processor/ChibiOS//os/hal/ports/STM32/LLD/GPIOv2/pal_lld.h"
 1706              		.file 27 "../e-puck2_main-processor/ChibiOS//os/hal/include/adc.h"
 1707              		.file 28 "../e-puck2_main-processor/ChibiOS//os/hal/ports/STM32/STM32F4xx/adc_lld.h"
 1708              		.file 29 "../e-puck2_main-processor/ChibiOS//os/hal/include/can.h"
 1709              		.file 30 "../e-puck2_main-processor/ChibiOS//os/hal/ports/STM32/LLD/can_lld.h"
 1710              		.file 31 "../e-puck2_main-processor/ChibiOS//os/hal/include/dac.h"
 1711              		.file 32 "../e-puck2_main-processor/ChibiOS//os/hal/ports/STM32/LLD/DACv1/dac_lld.h"
 1712              		.file 33 "../e-puck2_main-processor/ChibiOS//os/hal/include/ext.h"
 1713              		.file 34 "../e-puck2_main-processor/ChibiOS//os/hal/ports/STM32/LLD/ext_lld.h"
 1714              		.file 35 "../e-puck2_main-processor/ChibiOS//os/hal/include/gpt.h"
 1715              		.file 36 "../e-puck2_main-processor/ChibiOS//os/hal/ports/STM32/LLD/TIMv1/gpt_lld.h"
 1716              		.file 37 "../e-puck2_main-processor/ChibiOS//os/hal/ports/STM32/LLD/TIMv1/stm32_tim.h"
 1717              		.file 38 "../e-puck2_main-processor/ChibiOS//os/hal/include/i2c.h"
 1718              		.file 39 "../e-puck2_main-processor/ChibiOS//os/hal/ports/STM32/LLD/I2Cv1/i2c_lld.h"
 1719              		.file 40 "../e-puck2_main-processor/ChibiOS//os/hal/include/i2s.h"
 1720              		.file 41 "../e-puck2_main-processor/ChibiOS//os/hal/ports/STM32/LLD/SPIv1/i2s_lld.h"
 1721              		.file 42 "../e-puck2_main-processor/ChibiOS//os/hal/include/pwm.h"
 1722              		.file 43 "../e-puck2_main-processor/ChibiOS//os/hal/ports/STM32/LLD/TIMv1/pwm_lld.h"
 1723              		.file 44 "../e-puck2_main-processor/ChibiOS//os/hal/include/serial.h"
 1724              		.file 45 "../e-puck2_main-processor/ChibiOS//os/hal/ports/STM32/LLD/USARTv1/serial_lld.h"
 1725              		.file 46 "../e-puck2_main-processor/ChibiOS//os/hal/include/sdc.h"
 1726              		.file 47 "../e-puck2_main-processor/ChibiOS//os/hal/ports/STM32/LLD/sdc_lld.h"
 1727              		.file 48 "../e-puck2_main-processor/ChibiOS//os/hal/include/spi.h"
 1728              		.file 49 "../e-puck2_main-processor/ChibiOS//os/hal/ports/STM32/LLD/SPIv1/spi_lld.h"
 1729              		.file 50 "../e-puck2_main-processor/ChibiOS//os/hal/include/usb.h"
 1730              		.file 51 "../e-puck2_main-processor/ChibiOS//os/hal/ports/STM32/LLD/OTGv1/usb_lld.h"
 1731              		.file 52 "../e-puck2_main-processor/ChibiOS//os/hal/ports/STM32/LLD/OTGv1/stm32_otg.h"
 1732              		.file 53 "../e-puck2_main-processor/ChibiOS//os/hal/include/serial_usb.h"
 1733              		.file 54 "/Applications/Eclipse_e-puck2.app/Contents/Eclipse_e-puck2/Tools/gcc-arm-none-eabi-7-201
 1734              		.file 55 "/Applications/Eclipse_e-puck2.app/Contents/Eclipse_e-puck2/Tools/gcc-arm-none-eabi-7-201
 1735              		.file 56 "/Applications/Eclipse_e-puck2.app/Contents/Eclipse_e-puck2/Tools/gcc-arm-none-eabi-7-201
 1736              		.file 57 "/Applications/Eclipse_e-puck2.app/Contents/Eclipse_e-puck2/Tools/gcc-arm-none-eabi-7-201
 1737              		.file 58 "../e-puck2_main-processor/src/usbcfg.h"
 1738              		.file 59 "../e-puck2_main-processor/ChibiOS_ext/os/hal/include/../ports/STM32/STM32F4xx/dcmi_lld.h
 1739              		.file 60 "/Applications/Eclipse_e-puck2.app/Contents/Eclipse_e-puck2/Tools/gcc-arm-none-eabi-7-201
 1740              		.file 61 "../e-puck2_main-processor/src/msgbus/messagebus.h"
 1741              		.file 62 "/Applications/Eclipse_e-puck2.app/Contents/Eclipse_e-puck2/Tools/gcc-arm-none-eabi-7-201
 1742              		.file 63 "../e-puck2_main-processor/src/parameter/parameter.h"
 1743              		.file 64 "./main.h"
 1744              		.file 65 "./pi_regulato.h"
 1745              		.file 66 "../e-puck2_main-processor/ChibiOS//os/rt/include/chthreads.h"
 1746              		.file 67 "./optical_detection.h"
 1747              		.file 68 "../e-puck2_main-processor/src/sensors/VL53L0X/VL53L0X.h"
 1748              		.file 69 "../e-puck2_main-processor/src/motors.h"
 1749              		.file 70 "./audio_processing.h"